Component: ARM Compiler 5.06 update 4 (build 422) Tool: armlink [4d35d2]

==============================================================================

Section Cross References

    startup_stm32f072xb.o(STACK) refers (Special) to heapauxi.o(.text) for __use_two_region_memory
    startup_stm32f072xb.o(HEAP) refers (Special) to heapauxi.o(.text) for __use_two_region_memory
    startup_stm32f072xb.o(RESET) refers (Special) to heapauxi.o(.text) for __use_two_region_memory
    startup_stm32f072xb.o(RESET) refers to startup_stm32f072xb.o(STACK) for __initial_sp
    startup_stm32f072xb.o(RESET) refers to startup_stm32f072xb.o(.text) for Reset_Handler
    startup_stm32f072xb.o(RESET) refers to stm32f0xx_it.o(i.NMI_Handler) for NMI_Handler
    startup_stm32f072xb.o(RESET) refers to stm32f0xx_it.o(i.HardFault_Handler) for HardFault_Handler
    startup_stm32f072xb.o(RESET) refers to stm32f0xx_it.o(i.SVC_Handler) for SVC_Handler
    startup_stm32f072xb.o(RESET) refers to stm32f0xx_it.o(i.PendSV_Handler) for PendSV_Handler
    startup_stm32f072xb.o(RESET) refers to stm32f0xx_it.o(i.SysTick_Handler) for SysTick_Handler
    startup_stm32f072xb.o(RESET) refers to stm32f0xx_it.o(i.RTC_IRQHandler) for RTC_IRQHandler
    startup_stm32f072xb.o(RESET) refers to stm32f0xx_it.o(i.EXTI0_1_IRQHandler) for EXTI0_1_IRQHandler
    startup_stm32f072xb.o(RESET) refers to stm32f0xx_it.o(i.EXTI4_15_IRQHandler) for EXTI4_15_IRQHandler
    startup_stm32f072xb.o(RESET) refers to stm32f0xx_it.o(i.TIM2_IRQHandler) for TIM2_IRQHandler
    startup_stm32f072xb.o(RESET) refers to stm32f0xx_it.o(i.TIM14_IRQHandler) for TIM14_IRQHandler
    startup_stm32f072xb.o(RESET) refers to stm32f0xx_it.o(i.USART1_IRQHandler) for USART1_IRQHandler
    startup_stm32f072xb.o(RESET) refers to stm32f0xx_it.o(i.USART2_IRQHandler) for USART2_IRQHandler
    startup_stm32f072xb.o(RESET) refers to stm32f0xx_it.o(i.USART3_4_IRQHandler) for USART3_4_IRQHandler
    startup_stm32f072xb.o(RESET) refers to stm32f0xx_it.o(i.CEC_CAN_IRQHandler) for CEC_CAN_IRQHandler
    startup_stm32f072xb.o(.text) refers (Special) to heapauxi.o(.text) for __use_two_region_memory
    startup_stm32f072xb.o(.text) refers to system_stm32f0xx.o(i.SystemInit) for SystemInit
    startup_stm32f072xb.o(.text) refers to __main.o(!!!main) for __main
    startup_stm32f072xb.o(.text) refers to startup_stm32f072xb.o(HEAP) for Heap_Mem
    startup_stm32f072xb.o(.text) refers to startup_stm32f072xb.o(STACK) for Stack_Mem
    stm32f0xx_it.o(i.CEC_CAN_IRQHandler) refers to rt_memclr.o(.text) for __aeabi_memclr4
    stm32f0xx_it.o(i.CEC_CAN_IRQHandler) refers to stm32f0xx_can.o(i.CAN_Receive) for CAN_Receive
    stm32f0xx_it.o(i.CEC_CAN_IRQHandler) refers to sch_common.o(i.sch_memcpy) for sch_memcpy
    stm32f0xx_it.o(i.CEC_CAN_IRQHandler) refers to mw_can.o(i.Can_Rx_DataPro) for Can_Rx_DataPro
    stm32f0xx_it.o(i.CEC_CAN_IRQHandler) refers to stm32f0xx_can.o(i.CAN_ClearITPendingBit) for CAN_ClearITPendingBit
    stm32f0xx_it.o(i.EXTI0_1_IRQHandler) refers to stm32f0xx_exti.o(i.EXTI_GetITStatus) for EXTI_GetITStatus
    stm32f0xx_it.o(i.EXTI0_1_IRQHandler) refers to irda.o(i.RemoteInt) for RemoteInt
    stm32f0xx_it.o(i.EXTI0_1_IRQHandler) refers to stm32f0xx_exti.o(i.EXTI_ClearITPendingBit) for EXTI_ClearITPendingBit
    stm32f0xx_it.o(i.EXTI0_1_IRQHandler) refers to irda.o(.data) for RmtFlag
    stm32f0xx_it.o(i.EXTI4_15_IRQHandler) refers to stm32f0xx_exti.o(i.EXTI_GetITStatus) for EXTI_GetITStatus
    stm32f0xx_it.o(i.EXTI4_15_IRQHandler) refers to tuner_elite.o(i.RDSInt) for RDSInt
    stm32f0xx_it.o(i.EXTI4_15_IRQHandler) refers to stm32f0xx_exti.o(i.EXTI_ClearITPendingBit) for EXTI_ClearITPendingBit
    stm32f0xx_it.o(i.EXTI4_15_IRQHandler) refers to irda.o(i.RemoteInt) for RemoteInt
    stm32f0xx_it.o(i.EXTI4_15_IRQHandler) refers to irda.o(.data) for RmtFlag
    stm32f0xx_it.o(i.RTC_IRQHandler) refers to rtc_time.o(i.RTC_TimeShow) for RTC_TimeShow
    stm32f0xx_it.o(i.RTC_IRQHandler) refers to stm32f0xx_rtc.o(i.RTC_ClearITPendingBit) for RTC_ClearITPendingBit
    stm32f0xx_it.o(i.RTC_IRQHandler) refers to stm32f0xx_exti.o(i.EXTI_ClearITPendingBit) for EXTI_ClearITPendingBit
    stm32f0xx_it.o(i.RTC_IRQHandler) refers to stm32f0xx_rtc.o(i.RTC_GetITStatus) for RTC_GetITStatus
    stm32f0xx_it.o(i.TIM14_IRQHandler) refers to usart1.o(.data) for bCanTimeour
    stm32f0xx_it.o(i.TIM14_IRQHandler) refers to irda.o(.data) for Testtime_x100ms
    stm32f0xx_it.o(i.TIM14_IRQHandler) refers to core.o(.bss) for core
    stm32f0xx_it.o(i.TIM14_IRQHandler) refers to stm32f0xx_it.o(.data) for syspopcnt
    stm32f0xx_it.o(i.TIM14_IRQHandler) refers to drive.o(.data) for btime1s
    stm32f0xx_it.o(i.TIM14_IRQHandler) refers to radio.o(.data) for Rad_X4ms
    stm32f0xx_it.o(i.TIM14_IRQHandler) refers to rds.o(.data) for rRdRDS_X4ms
    stm32f0xx_it.o(i.USART1_IRQHandler) refers to stm32f0xx_usart.o(i.USART_GetFlagStatus) for USART_GetFlagStatus
    stm32f0xx_it.o(i.USART1_IRQHandler) refers to stm32f0xx_usart.o(i.USART_ReceiveData) for USART_ReceiveData
    stm32f0xx_it.o(i.USART1_IRQHandler) refers to stm32f0xx_usart.o(i.USART_ClearFlag) for USART_ClearFlag
    stm32f0xx_it.o(i.USART1_IRQHandler) refers to usart1.o(.data) for bCanTimeour
    stm32f0xx_it.o(i.USART1_IRQHandler) refers to usart1.o(.bss) for usart1Receivebuff
    stm32f0xx_it.o(i.USART2_IRQHandler) refers to stm32f0xx_usart.o(i.USART_GetFlagStatus) for USART_GetFlagStatus
    stm32f0xx_it.o(i.USART2_IRQHandler) refers to stm32f0xx_usart.o(i.USART_ReceiveData) for USART_ReceiveData
    stm32f0xx_it.o(i.USART2_IRQHandler) refers to stm32f0xx_usart.o(i.USART_ClearFlag) for USART_ClearFlag
    stm32f0xx_it.o(i.USART2_IRQHandler) refers to armuart.o(.data) for usart2Receivesave
    stm32f0xx_it.o(i.USART2_IRQHandler) refers to armuart.o(.bss) for usart2Receivebuff
    stm32f0xx_it.o(i.USART3_4_IRQHandler) refers to usart4.o(.data) for usart4Receivesave
    stm32f0xx_it.o(i.USART3_4_IRQHandler) refers to usart4.o(.bss) for usart4Receivebuff
    system_stm32f0xx.o(i.SystemCoreClockUpdate) refers to aeabi_sdiv.o(.text) for __aeabi_uidivmod
    system_stm32f0xx.o(i.SystemCoreClockUpdate) refers to system_stm32f0xx.o(.data) for SystemCoreClock
    main.o(i.main) refers to bsp.o(i.VectorRemap) for VectorRemap
    main.o(i.main) refers to bsp.o(i.BspInit) for BspInit
    main.o(i.main) refers to drive.o(i.DriveInit) for DriveInit
    main.o(i.main) refers to armuart.o(i.ArmUartInit) for ArmUartInit
    main.o(i.main) refers to detection.o(i.DetectInit) for DetectInit
    main.o(i.main) refers to key.o(i.KeyInit) for KeyInit
    main.o(i.main) refers to irda.o(i.IrdaInit) for IrdaInit
    main.o(i.main) refers to swc.o(i.SwcInit) for SwcInit
    main.o(i.main) refers to radio.o(i.RadioInit) for RadioInit
    main.o(i.main) refers to core.o(i.CoreInit) for CoreInit
    main.o(i.main) refers to usart1.o(i.VMCanInit) for VMCanInit
    main.o(i.main) refers to usart4.o(i.VM4CanInit) for VM4CanInit
    main.o(i.main) refers to bsp.o(i.SysDelay) for SysDelay
    main.o(i.main) refers to sch_printf.o(i.Printf) for Printf
    main.o(i.main) refers to drive.o(i.SystemTimeset) for SystemTimeset
    main.o(i.main) refers to detection.o(i.DetectSignal) for DetectSignal
    main.o(i.main) refers to key.o(i.ProcessPanelKey) for ProcessPanelKey
    main.o(i.main) refers to swc.o(i.ProcessSwc) for ProcessSwc
    main.o(i.main) refers to irda.o(i.RemoteProc) for RemoteProc
    main.o(i.main) refers to app_can.o(i.TASK_Can_Pro) for TASK_Can_Pro
    main.o(i.main) refers to core.o(i.ProcessCore) for ProcessCore
    main.o(i.main) refers to drive.o(i.ProcessMute) for ProcessMute
    main.o(i.main) refers to armuart.o(i.ProcessUart2) for ProcessUart2
    main.o(i.main) refers to radio.o(i.RadioProc) for RadioProc
    main.o(i.main) refers to rdsapp.o(i.RdsProc) for RdsProc
    main.o(i.main) refers to detection.o(i.ProcessDetect) for ProcessDetect
    main.o(i.main) refers to drive.o(i.ProcessDate) for ProcessDate
    main.o(i.main) refers to usart1.o(i.ProcessVMCan) for ProcessVMCan
    main.o(i.main) refers to usart4.o(i.ProcessVM4Can) for ProcessVM4Can
    main.o(i.main) refers to drive.o(i.SystemTimereset) for SystemTimereset
    main.o(i.main) refers to tuner_elite.o(.bss) for Radio_7786
    main.o(i.main) refers to core.o(.data) for rAreaSt
    main.o(i.main) refers to armuart.o(.data) for armcmd_cnt
    main.o(i.main) refers to detection.o(.data) for rBackLightLevel
    main.o(i.main) refers to radio.o(.data) for rRadMainSt
    main.o(i.main) refers to usart4.o(.data) for CancommandReceiveget
    main.o(i.main) refers to irda.o(.data) for Testtime_x100ms
    bsp.o(i.AdcInit) refers to bsp.o(.bss) for adcvalueBuff
    bsp.o(i.BspInit) refers to bsp.o(i.GpioInit) for GpioInit
    bsp.o(i.BspInit) refers to bsp.o(i.Time14Init) for Time14Init
    bsp.o(i.BspInit) refers to bsp.o(i.AdcInit) for AdcInit
    bsp.o(i.BspInit) refers to bsp.o(i.PWM_Init) for PWM_Init
    bsp.o(i.BspInit) refers to bsp.o(i.Bsp_UART_Init) for Bsp_UART_Init
    bsp.o(i.Bsp_UART_Init) refers to mw_uart.o(i.SysUartInit) for SysUartInit
    bsp.o(i.McuIapStart) refers to irda.o(i.IrdaDeInit) for IrdaDeInit
    bsp.o(i.McuIapStart) refers to tuner_elite.o(i.Disable_RDS_Int) for Disable_RDS_Int
    bsp.o(i.McuIapStart) refers to stm32f0xx_exti.o(i.EXTI_ClearITPendingBit) for EXTI_ClearITPendingBit
    bsp.o(i.McuIapStart) refers to stm32f0xx_tim.o(i.TIM_Cmd) for TIM_Cmd
    bsp.o(i.McuIapStart) refers to bsp.o(i.Time14Deinit) for Time14Deinit
    bsp.o(i.McuIapStart) refers to bsp.o(i.AdcDeinit) for AdcDeinit
    bsp.o(i.McuIapStart) refers to bsp.o(i.GalaDeInit) for GalaDeInit
    bsp.o(i.McuIapStart) refers to bsp.o(i.PWM_DeInit) for PWM_DeInit
    bsp.o(i.McuIapStart) refers to bsp.o(i.Uart4Deinit) for Uart4Deinit
    bsp.o(i.McuIapStart) refers to bsp.o(i.Uart1Deinit) for Uart1Deinit
    bsp.o(i.McuIapStart) refers to stm32f0xx_usart.o(i.USART_ClearFlag) for USART_ClearFlag
    bsp.o(i.McuIapStart) refers to flash_if.o(i.FLASH_if_Init) for FLASH_if_Init
    bsp.o(i.McuIapStart) refers to flash_if.o(i.FLASH_if_ErasePage) for FLASH_if_ErasePage
    bsp.o(i.McuIapStart) refers to flash_if.o(i.FLASH_if_Writehalfword) for FLASH_if_Writehalfword
    bsp.o(i.McuIapStart) refers to flash_if.o(i.FLASH_if_Lock) for FLASH_if_Lock
    bsp.o(i.McuIapStart) refers to flash_if.o(i.FLASH_if_Readhalfword) for FLASH_if_Readhalfword
    bsp.o(i.McuIapStart) refers to bsp.o(.data) for bootflag
    bsp.o(i.PWM_DeInit) refers to stm32f0xx_tim.o(i.TIM_Cmd) for TIM_Cmd
    bsp.o(i.Uart1Deinit) refers to stm32f0xx_gpio.o(i.GPIO_Init) for GPIO_Init
    bsp.o(i.Uart4Deinit) refers to stm32f0xx_usart.o(i.USART_DeInit) for USART_DeInit
    bsp.o(i.Uart4Deinit) refers to stm32f0xx_usart.o(i.USART_ITConfig) for USART_ITConfig
    bsp.o(i.Uart4Deinit) refers to stm32f0xx_usart.o(i.USART_ClearFlag) for USART_ClearFlag
    bsp.o(i.Uart4Deinit) refers to stm32f0xx_usart.o(i.USART_ClearITPendingBit) for USART_ClearITPendingBit
    bsp.o(i.Uart4Deinit) refers to stm32f0xx_usart.o(i.USART_Cmd) for USART_Cmd
    bsp.o(i.Uart4Deinit) refers to stm32f0xx_gpio.o(i.GPIO_Init) for GPIO_Init
    flash_if.o(i.FLASH_if_ErasePage) refers to flash_if.o(i.FLASH_if_WaitForLastOperation) for FLASH_if_WaitForLastOperation
    flash_if.o(i.FLASH_if_Init) refers to flash_if.o(i.FLASH_if_Unlock) for FLASH_if_Unlock
    flash_if.o(i.FLASH_if_Init) refers to flash_if.o(i.FLASH_if_ClearFlag) for FLASH_if_ClearFlag
    flash_if.o(i.FLASH_if_Writehalfword) refers to flash_if.o(i.FLASH_if_WaitForLastOperation) for FLASH_if_WaitForLastOperation
    core.o(i.CoreAccProcess) refers to core.o(i.__ARM_common_switch8) for __ARM_common_switch8
    core.o(i.CoreAccProcess) refers to drive.o(i.SystemPowerOn) for SystemPowerOn
    core.o(i.CoreAccProcess) refers to bsp.o(i.SysDelay) for SysDelay
    core.o(i.CoreAccProcess) refers to bsp.o(i.Bsp_UART_Init) for Bsp_UART_Init
    core.o(i.CoreAccProcess) refers to bsp.o(i.Uart2Init) for Uart2Init
    core.o(i.CoreAccProcess) refers to sch_printf.o(i.Printf) for Printf
    core.o(i.CoreAccProcess) refers to core.o(i.CoreFastBack) for CoreFastBack
    core.o(i.CoreAccProcess) refers to core.o(i.CoreFastPanel) for CoreFastPanel
    core.o(i.CoreAccProcess) refers to core.o(i.CoreFastArm2update) for CoreFastArm2update
    core.o(i.CoreAccProcess) refers to drive.o(i.MuteOn) for MuteOn
    core.o(i.CoreAccProcess) refers to armuart.o(i.ReportAccState) for ReportAccState
    core.o(i.CoreAccProcess) refers to drive.o(i.MuteTimeset) for MuteTimeset
    core.o(i.CoreAccProcess) refers to drive.o(i.SystemSleepWake) for SystemSleepWake
    core.o(i.CoreAccProcess) refers to drive.o(i.SystemPowerOff) for SystemPowerOff
    core.o(i.CoreAccProcess) refers to radio.o(i.SetRadPwrOff) for SetRadPwrOff
    core.o(i.CoreAccProcess) refers to drive.o(i.McuPowerDown) for McuPowerDown
    core.o(i.CoreAccProcess) refers to drive.o(i.ProcessDate) for ProcessDate
    core.o(i.CoreAccProcess) refers to drive.o(i.ResetExternDevice) for ResetExternDevice
    core.o(i.CoreAccProcess) refers to core.o(.bss) for core
    core.o(i.CoreAccProcess) refers to detection.o(.data) for accexistFlag
    core.o(i.CoreAccProcess) refers to core.o(.data) for fastback
    core.o(i.CoreAccProcess) refers to drive.o(.data) for btime1s
    core.o(i.CoreAccProcess) refers to armuart.o(.data) for rAccSt
    core.o(i.CoreFastArm2update) refers to armuart.o(i.Uart2SendStr) for Uart2SendStr
    core.o(i.CoreFastArm2update) refers to core.o(.bss) for core
    core.o(i.CoreFastArm2update) refers to drive.o(.data) for btime100ms
    core.o(i.CoreFastArm2update) refers to core.o(.data) for fastback
    core.o(i.CoreFastBack) refers to armuart.o(i.ReportFastback) for ReportFastback
    core.o(i.CoreFastBack) refers to core.o(.bss) for core
    core.o(i.CoreFastBack) refers to drive.o(.data) for btime100ms
    core.o(i.CoreFastBack) refers to detection.o(.data) for backexistFlag
    core.o(i.CoreFastBack) refers to core.o(.data) for fastback
    core.o(i.CoreFastPanel) refers to armuart.o(i.ReportControlBackLight) for ReportControlBackLight
    core.o(i.CoreFastPanel) refers to core.o(.bss) for core
    core.o(i.CoreFastPanel) refers to drive.o(.data) for btime100ms
    core.o(i.CoreFastPanel) refers to core.o(.data) for fastback
    core.o(i.CoreInit) refers to core.o(.bss) for core
    core.o(i.CoreInit) refers to core.o(.data) for bfirstbat
    core.o(i.CorePowerProcess) refers to core.o(i.__ARM_common_switch8) for __ARM_common_switch8
    core.o(i.CorePowerProcess) refers to sch_printf.o(i.Printf) for Printf
    core.o(i.CorePowerProcess) refers to drive.o(i.MuteTimeset) for MuteTimeset
    core.o(i.CorePowerProcess) refers to armuart.o(i.ReportMcuPowerinfo) for ReportMcuPowerinfo
    core.o(i.CorePowerProcess) refers to drive.o(i.MuteOn) for MuteOn
    core.o(i.CorePowerProcess) refers to radio.o(i.SetRadPwrOff) for SetRadPwrOff
    core.o(i.CorePowerProcess) refers to detection.o(.data) for accexistFlag
    core.o(i.CorePowerProcess) refers to core.o(.bss) for core
    core.o(i.CorePowerProcess) refers to core.o(.data) for sysflag0
    core.o(i.CorePowerProcess) refers to armuart.o(.data) for bpoweronFlag
    core.o(i.CorePowerProcess) refers to drive.o(.data) for externAMP
    core.o(i.CorePowerProcess) refers to key.o(.data) for bwaitpowerkey
    core.o(i.CoreTime) refers to drive.o(.data) for btime10ms
    core.o(i.CoreTime) refers to core.o(.bss) for core
    core.o(i.CoreTranserOpenBT) refers to key.o(i.TransmitKey) for TransmitKey
    core.o(i.CoreTranserOpenBT) refers to key.o(.data) for keygetindex
    core.o(i.CoreTranserOpenBT) refers to key.o(.bss) for keybuff
    core.o(i.MessageARMPoweroff) refers to armuart.o(i.Uart2SendStr) for Uart2SendStr
    core.o(i.ProcessArmkey) refers to core.o(i.__ARM_common_switch8) for __ARM_common_switch8
    core.o(i.ProcessArmkey) refers to armuart.o(i.ReportRadioBaseInfo) for ReportRadioBaseInfo
    core.o(i.ProcessArmkey) refers to drive.o(i.MuteTimeset) for MuteTimeset
    core.o(i.ProcessArmkey) refers to radio.o(i.RadioInit) for RadioInit
    core.o(i.ProcessArmkey) refers to armuart.o(i.ReportRadioPreListinfo) for ReportRadioPreListinfo
    core.o(i.ProcessArmkey) refers to swc.o(i.GetKeyNum) for GetKeyNum
    core.o(i.ProcessArmkey) refers to armuart.o(i.ReportAccinfo) for ReportAccinfo
    core.o(i.ProcessArmkey) refers to drive.o(i.MuteOn) for MuteOn
    core.o(i.ProcessArmkey) refers to irda.o(.data) for RmtFlag
    core.o(i.ProcessArmkey) refers to core.o(.bss) for armkey
    core.o(i.ProcessArmkey) refers to core.o(.data) for sysflag0
    core.o(i.ProcessArmkey) refers to key.o(.data) for rKeyResult
    core.o(i.ProcessArmkey) refers to tuner_elite.o(.bss) for Radio_7786
    core.o(i.ProcessArmkey) refers to radio.o(.data) for rRadFlg0
    core.o(i.ProcessArmkey) refers to detection.o(.data) for rBackLightLevel
    core.o(i.ProcessArmkey) refers to swc.o(.data) for AD_SW_Tab2
    core.o(i.ProcessArmkey) refers to swc.o(.bss) for AD_SW2_Info
    core.o(i.ProcessArmkey) refers to rds.o(.data) for rPtyType
    core.o(i.ProcessCore) refers to core.o(i.CoreAccProcess) for CoreAccProcess
    core.o(i.ProcessCore) refers to core.o(i.CorePowerProcess) for CorePowerProcess
    core.o(i.ProcessCore) refers to core.o(i.CoreTime) for CoreTime
    core.o(i.ProcessCore) refers to core.o(i.ProcessArmkey) for ProcessArmkey
    detection.o(i.CoreWakeupDetect) refers to drive.o(.data) for btime10ms
    detection.o(i.CoreWakeupDetect) refers to detection.o(.data) for wakeupdetectHas
    detection.o(i.DetecAccSignal) refers to drive.o(.data) for btime10ms
    detection.o(i.DetecAccSignal) refers to detection.o(.data) for accdetectTimeNo
    detection.o(i.DetecBackSight) refers to drive.o(.data) for btime10ms
    detection.o(i.DetecBackSight) refers to usart4.o(.data) for IO_CAN_R_EXIST
    detection.o(i.DetecBackSight) refers to detection.o(.data) for backdetectTimeNo
    detection.o(i.DetecBackSight) refers to core.o(.data) for fastback
    detection.o(i.DetecBat) refers to drive.o(i.MuteOn) for MuteOn
    detection.o(i.DetecBat) refers to core.o(i.CoreInit) for CoreInit
    detection.o(i.DetecBat) refers to sch_printf.o(i.Printf) for Printf
    detection.o(i.DetecBat) refers to drive.o(i.MuteTimeset) for MuteTimeset
    detection.o(i.DetecBat) refers to drive.o(.data) for bkey10ms
    detection.o(i.DetecBat) refers to bsp.o(.bss) for adcvalueBuff
    detection.o(i.DetecBat) refers to core.o(.data) for fastback
    detection.o(i.DetecBat) refers to armuart.o(.data) for rAccSt
    detection.o(i.DetecBat) refers to core.o(.bss) for core
    detection.o(i.DetecBat) refers to detection.o(.data) for batok
    detection.o(i.DetecBrakeSight) refers to drive.o(.data) for btime10ms
    detection.o(i.DetecBrakeSight) refers to detection.o(.data) for brakedetectTimeNo
    detection.o(i.DetecCarILL) refers to drive.o(.data) for btime10ms
    detection.o(i.DetecCarILL) refers to detection.o(.data) for carilldetectTimeNo
    detection.o(i.DetectInit) refers to detection.o(.data) for wakeupdetectHas
    detection.o(i.DetectSignal) refers to detection.o(i.DetecAccSignal) for DetecAccSignal
    detection.o(i.DetectSignal) refers to detection.o(i.CoreWakeupDetect) for CoreWakeupDetect
    detection.o(i.DetectSignal) refers to detection.o(i.DetecBat) for DetecBat
    detection.o(i.DetectSignal) refers to detection.o(i.HasAcc) for HasAcc
    detection.o(i.DetectSignal) refers to detection.o(i.DetecBackSight) for DetecBackSight
    detection.o(i.DetectSignal) refers to detection.o(i.DetecBrakeSight) for DetecBrakeSight
    detection.o(i.DetectSignal) refers to detection.o(i.DetecCarILL) for DetecCarILL
    detection.o(i.ProcessDetect) refers to armuart.o(i.ReportDeviceStatus) for ReportDeviceStatus
    detection.o(i.ProcessDetect) refers to drive.o(.data) for btime10ms
    detection.o(i.ProcessDetect) refers to core.o(.bss) for core
    detection.o(i.ProcessDetect) refers to detection.o(.data) for oldbackexistFlag
    drive.o(i.CloseExternDevice) refers to bsp.o(i.AdcDeinit) for AdcDeinit
    drive.o(i.CloseExternDevice) refers to bsp.o(i.GalaDeInit) for GalaDeInit
    drive.o(i.CloseExternDevice) refers to bsp.o(i.PWM_DeInit) for PWM_DeInit
    drive.o(i.CloseExternDevice) refers to bsp.o(i.Time14Deinit) for Time14Deinit
    drive.o(i.CloseExternDevice) refers to irda.o(i.IrdaDeInit) for IrdaDeInit
    drive.o(i.CloseExternDevice) refers to bsp.o(i.Uart4Deinit) for Uart4Deinit
    drive.o(i.CloseExternDevice) refers to bsp.o(i.Uart2Deinit) for Uart2Deinit
    drive.o(i.CloseExternDevice) refers to bsp.o(i.Uart1Deinit) for Uart1Deinit
    drive.o(i.CloseExternDevice) refers to bsp.o(i.SystemClkDown) for SystemClkDown
    drive.o(i.DriveInit) refers to drive.o(i.SystemTimereset) for SystemTimereset
    drive.o(i.DriveInit) refers to drive.o(.data) for timerInterruptAdd
    drive.o(i.DriveInit) refers to bsp.o(.bss) for adcvalueBuff
    drive.o(i.DriveInit) refers to drive.o(.bss) for armtime
    drive.o(i.DriveInit) refers to armuart.o(.data) for bpoweronFlag
    drive.o(i.IsLeapYear) refers to aeabi_sdiv.o(.text) for __aeabi_idivmod
    drive.o(i.IsLeapYear) refers to drive.o(.bss) for armtime
    drive.o(i.McuPowerDown) refers to detection.o(i.DetectInit) for DetectInit
    drive.o(i.McuPowerDown) refers to drive.o(i.CloseExternDevice) for CloseExternDevice
    drive.o(i.McuPowerDown) refers to armuart.o(.data) for usart2Receivesave
    drive.o(i.McuPowerDown) refers to armuart.o(.bss) for usart2Receivebuff
    drive.o(i.McuPowerDown) refers to drive.o(.data) for bmuteflag
    drive.o(i.McuPowerDown) refers to core.o(.data) for fastback
    drive.o(i.McuPowerDown) refers to core.o(.bss) for core
    drive.o(i.MuteOff) refers to sch_printf.o(i.Printf) for Printf
    drive.o(i.MuteOff) refers to detection.o(.data) for accexistFlag
    drive.o(i.MuteOff) refers to radio.o(.data) for rRadMainSt
    drive.o(i.MuteOff) refers to core.o(.bss) for core
    drive.o(i.MuteOff) refers to armuart.o(.data) for armsourceState
    drive.o(i.MuteOff) refers to drive.o(.data) for bmuteflag
    drive.o(i.MuteOn) refers to sch_printf.o(i.Printf) for Printf
    drive.o(i.MuteOn) refers to drive.o(.data) for bmuteflag
    drive.o(i.MuteOn) refers to core.o(.bss) for core
    drive.o(i.MuteOn) refers to radio.o(.data) for rRadMainSt
    drive.o(i.MuteOn) refers to armuart.o(.data) for armsourceState
    drive.o(i.MuteTimeset) refers to drive.o(i.MuteOn) for MuteOn
    drive.o(i.MuteTimeset) refers to sch_printf.o(i.Printf) for Printf
    drive.o(i.MuteTimeset) refers to core.o(.bss) for core
    drive.o(i.MuteTimeset) refers to detection.o(.data) for accexistFlag
    drive.o(i.MuteTimeset) refers to drive.o(.data) for bmutetime
    drive.o(i.MuteTimeset) refers to radio.o(.data) for rRadMainSt
    drive.o(i.MuteTimeset) refers to armuart.o(.data) for armsourceState
    drive.o(i.ProcessDate) refers to drive.o(i.IsLeapYear) for IsLeapYear
    drive.o(i.ProcessDate) refers to drive.o(.data) for btime1s
    drive.o(i.ProcessDate) refers to drive.o(.bss) for armtime
    drive.o(i.ProcessDate) refers to drive.o(.constdata) for leapYearMaxDateTab
    drive.o(i.ProcessMute) refers to drive.o(i.MuteOff) for MuteOff
    drive.o(i.ProcessMute) refers to sch_printf.o(i.Printf) for Printf
    drive.o(i.ProcessMute) refers to drive.o(.data) for bmutetime
    drive.o(i.ProcessMute) refers to armuart.o(.data) for armsourceState
    drive.o(i.ProcessMute) refers to radio.o(.data) for rRadMainSt
    drive.o(i.ProcessMute) refers to core.o(.bss) for core
    drive.o(i.ResetExternDevice) refers to system_stm32f0xx.o(i.SystemInit) for SystemInit
    drive.o(i.ResetExternDevice) refers to bsp.o(i.Time14Init) for Time14Init
    drive.o(i.ResetExternDevice) refers to irda.o(i.IrdaInit) for IrdaInit
    drive.o(i.ResetExternDevice) refers to bsp.o(i.AdcInit) for AdcInit
    drive.o(i.ResetExternDevice) refers to bsp.o(i.GalaInit) for GalaInit
    drive.o(i.ResetExternDevice) refers to bsp.o(i.PWM_Init) for PWM_Init
    drive.o(i.ResetExternDevice) refers to usart1.o(i.VMCanInit) for VMCanInit
    drive.o(i.ResetExternDevice) refers to usart4.o(i.VM4CanInit) for VM4CanInit
    drive.o(i.ResetExternDevice) refers to bsp.o(i.Bsp_UART_Init) for Bsp_UART_Init
    drive.o(i.SystemPowerOff) refers to bsp.o(i.Uart4Deinit) for Uart4Deinit
    drive.o(i.SystemPowerOff) refers to bsp.o(i.Uart2Deinit) for Uart2Deinit
    drive.o(i.SystemPowerOff) refers to bsp.o(i.Uart1Deinit) for Uart1Deinit
    drive.o(i.SystemPowerOn) refers to bsp.o(i.SysDelay) for SysDelay
    drive.o(i.SystemSleepWake) refers to core.o(i.MessageARMPoweroff) for MessageARMPoweroff
    drive.o(i.SystemTimereset) refers to drive.o(.data) for btime10ms
    drive.o(i.SystemTimeset) refers to tuner_elite.o(i.Tuner10msTimer) for Tuner10msTimer
    drive.o(i.SystemTimeset) refers to aeabi_sdiv.o(.text) for __aeabi_idivmod
    drive.o(i.SystemTimeset) refers to rds.o(i.RDSDataClear) for RDSDataClear
    drive.o(i.SystemTimeset) refers to drive.o(.data) for system10ms
    drive.o(i.SystemTimeset) refers to rds.o(.data) for RdsMeasure_X16ms
    drive.o(i.SystemTimeset) refers to usart4.o(.data) for IO_CAN_R_EXIST_Timer
    drive.o(i.SystemTimeset) refers to radio.o(.data) for Rad_X64ms
    drive.o(i.SystemTimeset) refers to rdseon.o(.data) for rRdsEon_X64ms
    key.o(i.KeyInit) refers to key.o(.data) for keysaveindex
    key.o(i.ProcessPanelKey) refers to key.o(i.ScanKey) for ScanKey
    key.o(i.ProcessPanelKey) refers to detection.o(i.HasAcc) for HasAcc
    key.o(i.ProcessPanelKey) refers to key.o(i.TransmitKey) for TransmitKey
    key.o(i.ProcessPanelKey) refers to key.o(.data) for keygetindex
    key.o(i.ProcessPanelKey) refers to core.o(.bss) for core
    key.o(i.ProcessPanelKey) refers to key.o(.bss) for keybuff
    key.o(i.SaveEncodekey) refers to key.o(.data) for keysaveindex
    key.o(i.SaveEncodekey) refers to key.o(.bss) for keybuff
    key.o(i.SaveLongkeyRelease) refers to detection.o(.data) for accexistFlag
    key.o(i.SaveLongkeyRelease) refers to key.o(.data) for keysaveindex
    key.o(i.SaveLongkeyRelease) refers to key.o(.bss) for keybuff
    key.o(i.SaveRecombinationkey) refers to key.o(.data) for keysaveindex
    key.o(i.SaveRecombinationkey) refers to key.o(.bss) for keybuff
    key.o(i.Savekey) refers to detection.o(.data) for accexistFlag
    key.o(i.Savekey) refers to key.o(.data) for keysaveindex
    key.o(i.Savekey) refers to key.o(.bss) for keybuff
    key.o(i.ScanKey) refers to detection.o(i.HasAcc) for HasAcc
    key.o(i.ScanKey) refers to key.o(i.ScanPanelkey) for ScanPanelkey
    key.o(i.ScanKey) refers to key.o(i.ScanVolEncodekey) for ScanVolEncodekey
    key.o(i.ScanPanelkey) refers to core.o(i.__ARM_common_switch8) for __ARM_common_switch8
    key.o(i.ScanPanelkey) refers to key.o(i.Savekey) for Savekey
    key.o(i.ScanPanelkey) refers to armuart.o(i.ReportARM2UPDate) for ReportARM2UPDate
    key.o(i.ScanPanelkey) refers to key.o(i.SaveLongkeyRelease) for SaveLongkeyRelease
    key.o(i.ScanPanelkey) refers to drive.o(.data) for bkey10ms
    key.o(i.ScanPanelkey) refers to detection.o(.data) for accexistFlag
    key.o(i.ScanPanelkey) refers to bsp.o(.bss) for adcvalueBuff
    key.o(i.ScanPanelkey) refers to key.o(.data) for scanpanelkeyLeftStatus
    key.o(i.ScanPanelkey) refers to core.o(.bss) for core
    key.o(i.ScanTunEncodekey) refers to key.o(i.SaveEncodekey) for SaveEncodekey
    key.o(i.ScanTunEncodekey) refers to key.o(.data) for encodekeyold
    key.o(i.ScanVolEncodekey) refers to key.o(i.SaveEncodekey) for SaveEncodekey
    key.o(i.ScanVolEncodekey) refers to key.o(.data) for encodekeyold
    key.o(i.ScanVolEncodekey) refers to bsp.o(.bss) for adcvalueBuff
    key.o(i.TransmitKey) refers to armuart.o(i.Uart2SendStr) for Uart2SendStr
    key.o(i.TransmitKey) refers to key.o(.data) for keygetindex
    key.o(i.TransmitKey) refers to key.o(.bss) for keybuff
    armuart.o(i.ArmUartInit) refers to armuart.o(.data) for usart2SendSave
    armuart.o(i.ArmUartInit) refers to armuart.o(.bss) for usart2Receivebuff
    armuart.o(i.ProcessArmCommand) refers to core.o(i.__ARM_common_switch8) for __ARM_common_switch8
    armuart.o(i.ProcessArmCommand) refers to armuart.o(i.ReportHandShake) for ReportHandShake
    armuart.o(i.ProcessArmCommand) refers to radio.o(i.Radio7786Poweron) for Radio7786Poweron
    armuart.o(i.ProcessArmCommand) refers to armuart.o(i.ReportRadioArea) for ReportRadioArea
    armuart.o(i.ProcessArmCommand) refers to sch_common.o(i.sch_memcpy) for sch_memcpy
    armuart.o(i.ProcessArmCommand) refers to sch_message.o(i.PostMessage) for PostMessage
    armuart.o(i.ProcessArmCommand) refers to usart4.o(i.Uart4SendStr) for Uart4SendStr
    armuart.o(i.ProcessArmCommand) refers to usart1.o(i.Uart1SendStr) for Uart1SendStr
    armuart.o(i.ProcessArmCommand) refers to armuart.o(i.ReportDeviceStatus) for ReportDeviceStatus
    armuart.o(i.ProcessArmCommand) refers to armuart.o(i.ReportChangeSource) for ReportChangeSource
    armuart.o(i.ProcessArmCommand) refers to drive.o(i.MuteTimeset) for MuteTimeset
    armuart.o(i.ProcessArmCommand) refers to armuart.o(i.ReportSetVolume) for ReportSetVolume
    armuart.o(i.ProcessArmCommand) refers to drive.o(i.MuteOn) for MuteOn
    armuart.o(i.ProcessArmCommand) refers to armuart.o(i.ReportKeySuccess) for ReportKeySuccess
    armuart.o(i.ProcessArmCommand) refers to radio.o(i.GetRadFreOctData) for GetRadFreOctData
    armuart.o(i.ProcessArmCommand) refers to armuart.o(i.ReportRadioSignalinfo) for ReportRadioSignalinfo
    armuart.o(i.ProcessArmCommand) refers to armuart.o(i.ReportRadioPreListinfo) for ReportRadioPreListinfo
    armuart.o(i.ProcessArmCommand) refers to armuart.o(i.ReportDate) for ReportDate
    armuart.o(i.ProcessArmCommand) refers to armuart.o(i.ReportMcuPowerinfo) for ReportMcuPowerinfo
    armuart.o(i.ProcessArmCommand) refers to armuart.o(i.ReportSetinfo) for ReportSetinfo
    armuart.o(i.ProcessArmCommand) refers to armuart.o(.bss) for armcommandbuff
    armuart.o(i.ProcessArmCommand) refers to core.o(.bss) for core
    armuart.o(i.ProcessArmCommand) refers to drive.o(.data) for bArmmute
    armuart.o(i.ProcessArmCommand) refers to armuart.o(.data) for armsourceState
    armuart.o(i.ProcessArmCommand) refers to radio.o(.data) for rRadFlg3
    armuart.o(i.ProcessArmCommand) refers to app_can.o(.bss) for AAC_DataTx
    armuart.o(i.ProcessArmCommand) refers to usart4.o(.bss) for Cancommandbuff
    armuart.o(i.ProcessArmCommand) refers to core.o(.data) for bwakeupfor
    armuart.o(i.ProcessArmCommand) refers to tuner_elite.o(.bss) for Radio_7786
    armuart.o(i.ProcessArmCommand) refers to drive.o(.bss) for armtime
    armuart.o(i.ProcessArmCommand) refers to rdsapp.o(i.RDSInit) for RDSInit
    armuart.o(i.ProcessArmCommand) refers to tuner_elite.o(i.TunerSeekOff) for TunerSeekOff
    armuart.o(i.ProcessArmCommand) refers to radio.o(i.RestoreStatNum) for RestoreStatNum
    armuart.o(i.ProcessArmCommand) refers to radio.o(i.GetRadPlayFre) for GetRadPlayFre
    armuart.o(i.ProcessArmCommand) refers to radio.o(i.StartWrPll) for StartWrPll
    armuart.o(i.ProcessArmCommand) refers to radio.o(i.StartChgBand) for StartChgBand
    armuart.o(i.ProcessArmCommand) refers to armuart.o(i.ReportRadioBaseInfo) for ReportRadioBaseInfo
    armuart.o(i.ProcessArmCommand) refers to armuart.o(i.ReportMcuVisions) for ReportMcuVisions
    armuart.o(i.ProcessArmCommand) refers to bsp.o(i.McuIapStart) for McuIapStart
    armuart.o(i.ProcessArmCommand) refers to armuart.o(i.ReportFirstBAT) for ReportFirstBAT
    armuart.o(i.ProcessArmCommand) refers to usart1.o(i.SetLinUartBaud) for SetLinUartBaud
    armuart.o(i.ProcessArmCommand) refers to rds.o(.data) for rRdsFlag1
    armuart.o(i.ProcessArmCommand) refers to usart1.o(.data) for canbaudRate
    armuart.o(i.ProcessArmCommand) refers to armuart.o(i.ReportSWCTable) for ReportSWCTable
    armuart.o(i.ProcessArmCommand) refers to swc.o(i.ResetStudyKeyNum) for ResetStudyKeyNum
    armuart.o(i.ProcessArmCommand) refers to swc.o(i.GetSWStudyKeyNum) for GetSWStudyKeyNum
    armuart.o(i.ProcessArmCommand) refers to swc.o(i.GetSW2StudyKeyNum) for GetSW2StudyKeyNum
    armuart.o(i.ProcessArmCommand) refers to detection.o(.data) for accexistFlag
    armuart.o(i.ProcessArmCommand) refers to swc.o(.bss) for AD_SW2_Info
    armuart.o(i.ProcessUart2) refers to sch_printf.o(i.Printf) for Printf
    armuart.o(i.ProcessUart2) refers to armuart.o(i.ProcessArmCommand) for ProcessArmCommand
    armuart.o(i.ProcessUart2) refers to armuart.o(.data) for usart2Receivesave
    armuart.o(i.ProcessUart2) refers to armuart.o(.bss) for usart2Receivebuff
    armuart.o(i.ProcessUart2) refers to tuner_elite.o(.bss) for Radio_7786
    armuart.o(i.ProcessUart2) refers to radio.o(.data) for cRadStatNum
    armuart.o(i.ReportARM2UPDate) refers to armuart.o(i.Uart2SendStr) for Uart2SendStr
    armuart.o(i.ReportARM2UPDate) refers to core.o(.bss) for core
    armuart.o(i.ReportAccState) refers to armuart.o(i.Uart2SendStr) for Uart2SendStr
    armuart.o(i.ReportAccState) refers to detection.o(.data) for accexistFlag
    armuart.o(i.ReportAccinfo) refers to armuart.o(i.Uart2SendStr) for Uart2SendStr
    armuart.o(i.ReportAccinfo) refers to armuart.o(.data) for rAccSt
    armuart.o(i.ReportAccinfo) refers to detection.o(.data) for batok
    armuart.o(i.ReportBackTrace) refers to armuart.o(i.Uart2SendStr) for Uart2SendStr
    armuart.o(i.ReportBackTrace) refers to core.o(.data) for btracedata
    armuart.o(i.ReportChangeSource) refers to armuart.o(i.Uart2SendStr) for Uart2SendStr
    armuart.o(i.ReportControlBackLight) refers to armuart.o(i.Uart2SendStr) for Uart2SendStr
    armuart.o(i.ReportControlBackLight) refers to detection.o(.data) for rBackLightLevel
    armuart.o(i.ReportDate) refers to aeabi_sdiv.o(.text) for __aeabi_idivmod
    armuart.o(i.ReportDate) refers to armuart.o(i.Uart2SendStr) for Uart2SendStr
    armuart.o(i.ReportDate) refers to drive.o(.bss) for armtime
    armuart.o(i.ReportDate) refers to drive.o(.data) for armsettimeStatus
    armuart.o(i.ReportDeviceStatus) refers to armuart.o(i.Uart2SendStr) for Uart2SendStr
    armuart.o(i.ReportDeviceStatus) refers to detection.o(.data) for backexistFlag
    armuart.o(i.ReportFastback) refers to armuart.o(i.Uart2SendStr) for Uart2SendStr
    armuart.o(i.ReportFirstBAT) refers to armuart.o(i.Uart2SendStr) for Uart2SendStr
    armuart.o(i.ReportFirstBAT) refers to core.o(.data) for bfirstbat
    armuart.o(i.ReportHandShake) refers to armuart.o(i.Uart2SendStr) for Uart2SendStr
    armuart.o(i.ReportHeartbeat) refers to armuart.o(i.Uart2SendStr) for Uart2SendStr
    armuart.o(i.ReportKeySuccess) refers to armuart.o(i.Uart2SendStr) for Uart2SendStr
    armuart.o(i.ReportMcuPowerinfo) refers to armuart.o(i.Uart2SendStr) for Uart2SendStr
    armuart.o(i.ReportMcuPowerinfo) refers to core.o(.bss) for core
    armuart.o(i.ReportMcuVisions) refers to armuart.o(i.Uart2SendStr) for Uart2SendStr
    armuart.o(i.ReportRadioArea) refers to armuart.o(i.Uart2SendStr) for Uart2SendStr
    armuart.o(i.ReportRadioArea) refers to tuner_elite.o(.bss) for Radio_7786
    armuart.o(i.ReportRadioBaseInfo) refers to radio.o(i.TunFMParmStartAddr) for TunFMParmStartAddr
    armuart.o(i.ReportRadioBaseInfo) refers to aeabi_sdiv.o(.text) for __aeabi_idivmod
    armuart.o(i.ReportRadioBaseInfo) refers to radio.o(i.TunFMORITParmStartAddr) for TunFMORITParmStartAddr
    armuart.o(i.ReportRadioBaseInfo) refers to radio.o(i.TunAMParmStartAddr) for TunAMParmStartAddr
    armuart.o(i.ReportRadioBaseInfo) refers to armuart.o(i.Uart2SendStr) for Uart2SendStr
    armuart.o(i.ReportRadioBaseInfo) refers to tuner_elite.o(.bss) for Radio_7786
    armuart.o(i.ReportRadioBaseInfo) refers to radio.o(.data) for cBand
    armuart.o(i.ReportRadioBaseInfo) refers to core.o(.data) for radioinfoState1
    armuart.o(i.ReportRadioPreListinfo) refers to radio.o(i.PSStationChk) for PSStationChk
    armuart.o(i.ReportRadioPreListinfo) refers to radio.o(i.GetRadFreOctData) for GetRadFreOctData
    armuart.o(i.ReportRadioPreListinfo) refers to armuart.o(i.Uart2SendStr) for Uart2SendStr
    armuart.o(i.ReportRadioPreListinfo) refers to tuner_elite.o(.bss) for Radio_7786
    armuart.o(i.ReportRadioPreListinfo) refers to radio.o(.data) for rRadMainSt
    armuart.o(i.ReportRadioPreListinfo) refers to radio.o(.bss) for AMPresetMem
    armuart.o(i.ReportRadioSignalinfo) refers to armuart.o(i.Uart2SendStr) for Uart2SendStr
    armuart.o(i.ReportRadioSignalinfo) refers to tuner_elite.o(.bss) for Radio_7786
    armuart.o(i.ReportRdsPsinfo) refers to armuart.o(i.Uart2SendStr) for Uart2SendStr
    armuart.o(i.ReportRdsPsinfo) refers to rds.o(.data) for rRdsPsNameSto
    armuart.o(i.ReportRdsRTinfo) refers to armuart.o(i.Uart2SendStr) for Uart2SendStr
    armuart.o(i.ReportRdsRTinfo) refers to rds.o(.bss) for rRdsRTNameSto
    armuart.o(i.ReportSWCTable) refers to armuart.o(i.Uart2SendStr) for Uart2SendStr
    armuart.o(i.ReportSWCTable) refers to swc.o(.bss) for AD_SW2_Info
    armuart.o(i.ReportSWCTable) refers to swc.o(.data) for AD_SW_Tab
    armuart.o(i.ReportSetVolume) refers to armuart.o(i.Uart2SendStr) for Uart2SendStr
    armuart.o(i.ReportSetinfo) refers to armuart.o(i.Uart2SendStr) for Uart2SendStr
    armuart.o(i.Uart2DmaSendProcess) refers to armuart.o(.data) for usart2SendSave
    armuart.o(i.Uart2DmaSendProcess) refers to armuart.o(.bss) for usart2Sendbuff
    armuart.o(i.Uart2SendStr) refers to sch_printf.o(i.Printf) for Printf
    armuart.o(i.Uart2SendStr) refers to core.o(.bss) for core
    armuart.o(i.Uart2SendStr) refers to radio.o(.data) for rRadSubSt
    armuart.o(i.Uart2SendStr) refers to armuart.o(.data) for usart2SendSave
    armuart.o(i.Uart2SendStr) refers to armuart.o(.bss) for usart2Sendbuff
    stm32f0xx_can.o(i.CAN_GetITStatus) refers to stm32f0xx_can.o(i.CheckITStatus) for CheckITStatus
    swc.o(i.ADC_GetData) refers to sch_common.o(i.IsInArray_U8) for IsInArray_U8
    swc.o(i.ADC_GetData) refers to swc.o(.data) for CH_Arry
    swc.o(i.ADC_GetData) refers to bsp.o(.bss) for adcvalueBuff
    swc.o(i.AD_SW2_Init) refers to sch_common.o(i.sch_memset) for sch_memset
    swc.o(i.AD_SW2_Init) refers to swc.o(i.SetADC_Data) for SetADC_Data
    swc.o(i.AD_SW2_Init) refers to swc.o(.bss) for AD_SW2_Info
    swc.o(i.AD_SW2_Init) refers to swc.o(.data) for AD_SW_Tab
    swc.o(i.AD_SW2_Key_Scan) refers to swc.o(i.Key_Scan_AD) for Key_Scan_AD
    swc.o(i.AD_SW2_Key_Scan) refers to swc.o(i.Key_Scan_AD2) for Key_Scan_AD2
    swc.o(i.AD_SW2_Key_Scan) refers to swc.o(i.GetKeyData) for GetKeyData
    swc.o(i.AD_SW2_Key_Scan) refers to armuart.o(i.ReportSWCTable) for ReportSWCTable
    swc.o(i.AD_SW2_Key_Scan) refers to swc.o(i.GetKeyData2) for GetKeyData2
    swc.o(i.AD_SW2_Key_Scan) refers to swc.o(i.ScanSwckey) for ScanSwckey
    swc.o(i.AD_SW2_Key_Scan) refers to swc.o(.bss) for AD_SW_Info
    swc.o(i.AD_SW2_Key_Scan) refers to swc.o(.data) for AD_SW_Tab
    swc.o(i.ClrKeyInfo) refers to sch_common.o(i.sch_memset) for sch_memset
    swc.o(i.GetKeyData) refers to swc.o(i.ADC_GetData) for ADC_GetData
    swc.o(i.GetKeyData) refers to sch_common.o(i.IsInData) for IsInData
    swc.o(i.GetKeyData) refers to sch_common.o(i.GetAverage_U16) for GetAverage_U16
    swc.o(i.GetKeyData) refers to swc.o(.data) for index
    swc.o(i.GetKeyData) refers to swc.o(.bss) for ADC_Value
    swc.o(i.GetKeyData2) refers to swc.o(i.ADC_GetData) for ADC_GetData
    swc.o(i.GetKeyData2) refers to sch_common.o(i.IsInData) for IsInData
    swc.o(i.GetKeyData2) refers to sch_common.o(i.GetAverage_U16) for GetAverage_U16
    swc.o(i.GetKeyData2) refers to swc.o(.data) for index
    swc.o(i.GetKeyData2) refers to swc.o(.bss) for ADC_Value
    swc.o(i.GetSW2StudyKeyNum) refers to swc.o(.data) for AD_SW_Tab2
    swc.o(i.GetSWStudyKeyNum) refers to swc.o(.data) for AD_SW_Tab
    swc.o(i.KeyScan) refers to key.o(i.SaveEncodekey) for SaveEncodekey
    swc.o(i.KeyScan) refers to swc.o(i.ClrKeyInfo) for ClrKeyInfo
    swc.o(i.KeyTimer) refers to key.o(i.SaveEncodekey) for SaveEncodekey
    swc.o(i.KeyTimer) refers to drive.o(.data) for btime10ms
    swc.o(i.Key_Scan_AD) refers to swc.o(i.ADC_GetData) for ADC_GetData
    swc.o(i.Key_Scan_AD) refers to sch_common.o(i.IsInData) for IsInData
    swc.o(i.Key_Scan_AD) refers to swc.o(i.KeyScan) for KeyScan
    swc.o(i.Key_Scan_AD) refers to swc.o(i.KeyTimer) for KeyTimer
    swc.o(i.Key_Scan_AD) refers to swc.o(.bss) for AD_SW_Info
    swc.o(i.Key_Scan_AD2) refers to swc.o(i.ADC_GetData) for ADC_GetData
    swc.o(i.Key_Scan_AD2) refers to sch_common.o(i.IsInData) for IsInData
    swc.o(i.Key_Scan_AD2) refers to swc.o(i.KeyScan) for KeyScan
    swc.o(i.Key_Scan_AD2) refers to swc.o(i.KeyTimer) for KeyTimer
    swc.o(i.Key_Scan_AD2) refers to swc.o(.bss) for AD_SW2_Info
    swc.o(i.Panel_Init) refers to swc.o(i.AD_SW2_Init) for AD_SW2_Init
    swc.o(i.ProcessSwc) refers to swc.o(i.AD_SW2_Key_Scan) for AD_SW2_Key_Scan
    swc.o(i.ResetStudyKeyNum) refers to swc.o(.data) for AD_SW_Tab
    swc.o(i.Saveswckey) refers to key.o(i.SaveEncodekey) for SaveEncodekey
    swc.o(i.Saveswckey) refers to key.o(i.SaveRecombinationkey) for SaveRecombinationkey
    swc.o(i.ScanSwckey) refers to key.o(i.SaveEncodekey) for SaveEncodekey
    swc.o(i.ScanSwckey) refers to swc.o(i.Saveswckey) for Saveswckey
    swc.o(i.ScanSwckey) refers to drive.o(.data) for bswc10ms
    swc.o(i.ScanSwckey) refers to detection.o(.data) for accexistFlag
    swc.o(i.ScanSwckey) refers to bsp.o(.bss) for adcvalueBuff
    swc.o(i.ScanSwckey) refers to swc.o(.data) for scanswckeyStatus
    swc.o(i.SwcInit) refers to swc.o(.data) for scanswckeyStatus
    usart1.o(i.ProcessVMCan) refers to usart1.o(i.ReadArmCanStr) for ReadArmCanStr
    usart1.o(i.ProcessVMCan) refers to usart1.o(.data) for usart1Receivesave
    usart1.o(i.ReadArmCanStr) refers to armuart.o(i.Uart2SendStr) for Uart2SendStr
    usart1.o(i.ReadArmCanStr) refers to usart1.o(.bss) for lincommandbuff
    usart1.o(i.ReadArmCanStr) refers to usart1.o(.data) for usart1Receiveget
    usart1.o(i.SetLinUartBaud) refers to aeabi_sdiv.o(.text) for __aeabi_uidivmod
    usart1.o(i.SetLinUartBaud) refers to usart1.o(.data) for usart1SendSave
    usart1.o(i.Uart1SendStr) refers to usart1.o(.data) for usart1SendSave
    usart1.o(i.Uart1SendStr) refers to usart1.o(.bss) for usart1SendData
    usart1.o(i.VMCanInit) refers to usart1.o(.data) for usart1SendSave
    app_can.o(i.CanDataRxPro) refers to rt_memclr.o(.text) for __aeabi_memclr4
    app_can.o(i.CanDataRxPro) refers to mw_can.o(i.CanRxData) for CanRxData
    app_can.o(i.CanDataRxPro) refers to sch_common.o(i.sch_memcpy) for sch_memcpy
    app_can.o(i.CanDataRxPro) refers to app_can.o(i.ReportCANData) for ReportCANData
    app_can.o(i.CanDataRxPro) refers to mw_can.o(i.CanRxCnt) for CanRxCnt
    app_can.o(i.CanDataRxPro) refers to app_can.o(.bss) for AAC_DataRx
    app_can.o(i.M2C_TxService) refers to rt_memclr.o(.text) for __aeabi_memclr4
    app_can.o(i.M2C_TxService) refers to sch_message.o(i.GetMessage) for GetMessage
    app_can.o(i.M2C_TxService) refers to core.o(i.__ARM_common_switch8) for __ARM_common_switch8
    app_can.o(i.M2C_TxService) refers to sch_common.o(i.sch_memset) for sch_memset
    app_can.o(i.M2C_TxService) refers to stm32f0xx_can.o(i.CAN_Transmit) for CAN_Transmit
    app_can.o(i.M2C_TxService) refers to sch_common.o(i.sch_memcpy) for sch_memcpy
    app_can.o(i.M2C_TxService) refers to app_can.o(.bss) for AAC_DataTx
    app_can.o(i.ReportAirHeatData) refers to armuart.o(i.Uart2SendStr) for Uart2SendStr
    app_can.o(i.ReportAirHeatData) refers to app_can.o(.bss) for AAC_DataRx
    app_can.o(i.ReportCANData) refers to armuart.o(i.Uart2SendStr) for Uart2SendStr
    app_can.o(i.ReportCANData) refers to app_can.o(.bss) for AAC_DataRx
    app_can.o(i.TASK_Can_Pro) refers to app_can.o(i.M2C_TxService) for M2C_TxService
    mw_can.o(i.CAN_Configuration) refers to mw_can.o(i.NVIC_Configuration) for NVIC_Configuration
    mw_can.o(i.CAN_Configuration) refers to mw_can.o(i.GPIO_Configuration) for GPIO_Configuration
    mw_can.o(i.CAN_Configuration) refers to stm32f0xx_can.o(i.CAN_DeInit) for CAN_DeInit
    mw_can.o(i.CAN_Configuration) refers to stm32f0xx_can.o(i.CAN_StructInit) for CAN_StructInit
    mw_can.o(i.CAN_Configuration) refers to stm32f0xx_can.o(i.CAN_Init) for CAN_Init
    mw_can.o(i.CAN_Configuration) refers to stm32f0xx_can.o(i.CAN_FilterInit) for CAN_FilterInit
    mw_can.o(i.CAN_Configuration) refers to stm32f0xx_can.o(i.CAN_ITConfig) for CAN_ITConfig
    mw_can.o(i.CanBufCnt) refers to sch_queue.o(i.Queue_Cnt) for Queue_Cnt
    mw_can.o(i.CanBufCnt) refers to mw_can.o(.constdata) for CanBufAddr
    mw_can.o(i.CanBufInit) refers to sch_queue.o(i.Queue_Init) for Queue_Init
    mw_can.o(i.CanBufInit) refers to mw_can.o(.constdata) for CanBufAddr
    mw_can.o(i.CanGetFromBuf) refers to sch_queue.o(i.Queue_Out) for Queue_Out
    mw_can.o(i.CanGetFromBuf) refers to mw_can.o(.constdata) for CanBufAddr
    mw_can.o(i.CanPutToBuf) refers to sch_queue.o(i.Queue_In) for Queue_In
    mw_can.o(i.CanPutToBuf) refers to mw_can.o(.constdata) for CanBufAddr
    mw_can.o(i.CanRxCnt) refers to mw_can.o(i.CanBufCnt) for CanBufCnt
    mw_can.o(i.CanRxData) refers to mw_can.o(i.CanGetFromBuf) for CanGetFromBuf
    mw_can.o(i.CanTxCnt) refers to mw_can.o(i.CanBufCnt) for CanBufCnt
    mw_can.o(i.CanTxData) refers to mw_can.o(i.CanPutToBuf) for CanPutToBuf
    mw_can.o(i.CanTxData) refers to mw_can.o(i.Can_Tx_DataPro) for Can_Tx_DataPro
    mw_can.o(i.Can_Rx_DataPro) refers to mw_can.o(i.CanPutToBuf) for CanPutToBuf
    mw_can.o(i.Can_Tx_DataPro) refers to mw_can.o(i.CanTxCnt) for CanTxCnt
    mw_can.o(i.Can_Tx_DataPro) refers to stm32f0xx_can.o(i.CAN_ITConfig) for CAN_ITConfig
    mw_can.o(i.Can_Tx_DataPro) refers to mw_can.o(i.CanGetFromBuf) for CanGetFromBuf
    mw_can.o(i.Can_Tx_DataPro) refers to stm32f0xx_can.o(i.CAN_Transmit) for CAN_Transmit
    mw_can.o(i.Can_Tx_DataPro) refers to mw_can.o(.data) for Can_Arry
    mw_can.o(i.GPIO_Configuration) refers to stm32f0xx_rcc.o(i.RCC_AHBPeriphClockCmd) for RCC_AHBPeriphClockCmd
    mw_can.o(i.GPIO_Configuration) refers to stm32f0xx_rcc.o(i.RCC_APB1PeriphClockCmd) for RCC_APB1PeriphClockCmd
    mw_can.o(i.GPIO_Configuration) refers to stm32f0xx_gpio.o(i.GPIO_PinAFConfig) for GPIO_PinAFConfig
    mw_can.o(i.GPIO_Configuration) refers to stm32f0xx_gpio.o(i.GPIO_Init) for GPIO_Init
    mw_can.o(i.GPIO_Configuration) refers to stm32f0xx_gpio.o(i.GPIO_ResetBits) for GPIO_ResetBits
    mw_can.o(i.NVIC_Configuration) refers to stm32f0xx_misc.o(i.NVIC_Init) for NVIC_Init
    mw_can.o(i.SysCanInit) refers to mw_can.o(i.CAN_Configuration) for CAN_Configuration
    mw_can.o(i.SysCanInit) refers to mw_can.o(i.CanBufInit) for CanBufInit
    mw_can.o(.constdata) refers to mw_can.o(.data) for CAN0_RX_QUEUE
    mw_can.o(.data) refers to mw_can.o(.bss) for Can0_TX_buf
    stm32f0xx_rcc.o(i.RCC_GetClocksFreq) refers to aeabi_sdiv.o(.text) for __aeabi_uidivmod
    stm32f0xx_rcc.o(i.RCC_GetClocksFreq) refers to stm32f0xx_rcc.o(.data) for APBAHBPrescTable
    stm32f0xx_rcc.o(i.RCC_WaitForHSEStartUp) refers to stm32f0xx_rcc.o(i.RCC_GetFlagStatus) for RCC_GetFlagStatus
    stm32f0xx_gpio.o(i.GPIO_DeInit) refers to stm32f0xx_rcc.o(i.RCC_AHBPeriphResetCmd) for RCC_AHBPeriphResetCmd
    stm32f0xx_tim.o(i.TIM_DeInit) refers to stm32f0xx_rcc.o(i.RCC_APB2PeriphResetCmd) for RCC_APB2PeriphResetCmd
    stm32f0xx_tim.o(i.TIM_DeInit) refers to stm32f0xx_rcc.o(i.RCC_APB1PeriphResetCmd) for RCC_APB1PeriphResetCmd
    stm32f0xx_tim.o(i.TIM_ETRClockMode1Config) refers to stm32f0xx_tim.o(i.TIM_ETRConfig) for TIM_ETRConfig
    stm32f0xx_tim.o(i.TIM_ETRClockMode2Config) refers to stm32f0xx_tim.o(i.TIM_ETRConfig) for TIM_ETRConfig
    stm32f0xx_tim.o(i.TIM_ICInit) refers to stm32f0xx_tim.o(i.TI1_Config) for TI1_Config
    stm32f0xx_tim.o(i.TIM_ICInit) refers to stm32f0xx_tim.o(i.TIM_SetIC1Prescaler) for TIM_SetIC1Prescaler
    stm32f0xx_tim.o(i.TIM_ICInit) refers to stm32f0xx_tim.o(i.TI2_Config) for TI2_Config
    stm32f0xx_tim.o(i.TIM_ICInit) refers to stm32f0xx_tim.o(i.TIM_SetIC2Prescaler) for TIM_SetIC2Prescaler
    stm32f0xx_tim.o(i.TIM_ICInit) refers to stm32f0xx_tim.o(i.TI3_Config) for TI3_Config
    stm32f0xx_tim.o(i.TIM_ICInit) refers to stm32f0xx_tim.o(i.TIM_SetIC3Prescaler) for TIM_SetIC3Prescaler
    stm32f0xx_tim.o(i.TIM_ICInit) refers to stm32f0xx_tim.o(i.TI4_Config) for TI4_Config
    stm32f0xx_tim.o(i.TIM_ICInit) refers to stm32f0xx_tim.o(i.TIM_SetIC4Prescaler) for TIM_SetIC4Prescaler
    stm32f0xx_tim.o(i.TIM_ITRxExternalClockConfig) refers to stm32f0xx_tim.o(i.TIM_SelectInputTrigger) for TIM_SelectInputTrigger
    stm32f0xx_tim.o(i.TIM_PWMIConfig) refers to stm32f0xx_tim.o(i.TI1_Config) for TI1_Config
    stm32f0xx_tim.o(i.TIM_PWMIConfig) refers to stm32f0xx_tim.o(i.TIM_SetIC1Prescaler) for TIM_SetIC1Prescaler
    stm32f0xx_tim.o(i.TIM_PWMIConfig) refers to stm32f0xx_tim.o(i.TI2_Config) for TI2_Config
    stm32f0xx_tim.o(i.TIM_PWMIConfig) refers to stm32f0xx_tim.o(i.TIM_SetIC2Prescaler) for TIM_SetIC2Prescaler
    stm32f0xx_tim.o(i.TIM_TIxExternalClockConfig) refers to stm32f0xx_tim.o(i.TI2_Config) for TI2_Config
    stm32f0xx_tim.o(i.TIM_TIxExternalClockConfig) refers to stm32f0xx_tim.o(i.TI1_Config) for TI1_Config
    stm32f0xx_tim.o(i.TIM_TIxExternalClockConfig) refers to stm32f0xx_tim.o(i.TIM_SelectInputTrigger) for TIM_SelectInputTrigger
    irda.o(i.IR_EXTI7_Config) refers to stm32f0xx_syscfg.o(i.SYSCFG_EXTILineConfig) for SYSCFG_EXTILineConfig
    irda.o(i.IR_EXTI7_Config) refers to stm32f0xx_rcc.o(i.RCC_AHBPeriphClockCmd) for RCC_AHBPeriphClockCmd
    irda.o(i.IR_EXTI7_Config) refers to stm32f0xx_gpio.o(i.GPIO_Init) for GPIO_Init
    irda.o(i.IR_EXTI7_Config) refers to stm32f0xx_exti.o(i.EXTI_StructInit) for EXTI_StructInit
    irda.o(i.IR_EXTI7_Config) refers to stm32f0xx_exti.o(i.EXTI_Init) for EXTI_Init
    irda.o(i.IR_EXTI7_Config) refers to stm32f0xx_misc.o(i.NVIC_Init) for NVIC_Init
    irda.o(i.IR_EXTI7_Config) refers to stm32f0xx_exti.o(i.EXTI_ClearITPendingBit) for EXTI_ClearITPendingBit
    irda.o(i.IR_EXTI8_Config) refers to stm32f0xx_syscfg.o(i.SYSCFG_EXTILineConfig) for SYSCFG_EXTILineConfig
    irda.o(i.IR_EXTI8_Config) refers to stm32f0xx_rcc.o(i.RCC_AHBPeriphClockCmd) for RCC_AHBPeriphClockCmd
    irda.o(i.IR_EXTI8_Config) refers to stm32f0xx_gpio.o(i.GPIO_Init) for GPIO_Init
    irda.o(i.IR_EXTI8_Config) refers to stm32f0xx_exti.o(i.EXTI_StructInit) for EXTI_StructInit
    irda.o(i.IR_EXTI8_Config) refers to stm32f0xx_exti.o(i.EXTI_Init) for EXTI_Init
    irda.o(i.IR_EXTI8_Config) refers to stm32f0xx_misc.o(i.NVIC_Init) for NVIC_Init
    irda.o(i.IR_EXTI8_Config) refers to stm32f0xx_exti.o(i.EXTI_ClearITPendingBit) for EXTI_ClearITPendingBit
    irda.o(i.IrdaDeInit) refers to stm32f0xx_gpio.o(i.GPIO_Init) for GPIO_Init
    irda.o(i.IrdaDeInit) refers to stm32f0xx_exti.o(i.EXTI_StructInit) for EXTI_StructInit
    irda.o(i.IrdaDeInit) refers to stm32f0xx_exti.o(i.EXTI_Init) for EXTI_Init
    irda.o(i.IrdaDeInit) refers to stm32f0xx_misc.o(i.NVIC_Init) for NVIC_Init
    irda.o(i.IrdaDeInit) refers to stm32f0xx_exti.o(i.EXTI_ClearITPendingBit) for EXTI_ClearITPendingBit
    irda.o(i.IrdaInit) refers to irda.o(i.Timer2Init) for Timer2Init
    irda.o(i.IrdaInit) refers to irda.o(i.IR_EXTI7_Config) for IR_EXTI7_Config
    irda.o(i.IrdaInit) refers to irda.o(i.IR_EXTI8_Config) for IR_EXTI8_Config
    irda.o(i.RemoteInt) refers to stm32f0xx_tim.o(i.TIM_Cmd) for TIM_Cmd
    irda.o(i.RemoteInt) refers to stm32f0xx_tim.o(i.TIM_GetCounter) for TIM_GetCounter
    irda.o(i.RemoteInt) refers to stm32f0xx_tim.o(i.TIM_SetAutoreload) for TIM_SetAutoreload
    irda.o(i.RemoteInt) refers to stm32f0xx_tim.o(i.TIM_SetCounter) for TIM_SetCounter
    irda.o(i.RemoteInt) refers to irda.o(.data) for Remote_cnt_st
    irda.o(i.RemoteProc) refers to core.o(i.__ARM_common_switch8) for __ARM_common_switch8
    irda.o(i.RemoteProc) refers to irda.o(i.RstRmtDecode) for RstRmtDecode
    irda.o(i.RemoteProc) refers to irda.o(i.SpKyCk) for SpKyCk
    irda.o(i.RemoteProc) refers to irda.o(i.RptKyCk) for RptKyCk
    irda.o(i.RemoteProc) refers to key.o(i.SaveEncodekey) for SaveEncodekey
    irda.o(i.RemoteProc) refers to irda.o(.data) for rRmtSt
    irda.o(i.RemoteProc) refers to radio.o(.data) for Rad_X64ms
    irda.o(i.RemoteProc) refers to core.o(.bss) for core
    irda.o(i.RstRmtDecode) refers to irda.o(.data) for rRmtSt
    irda.o(i.Timer2Init) refers to stm32f0xx_rcc.o(i.RCC_APB1PeriphClockCmd) for RCC_APB1PeriphClockCmd
    irda.o(i.Timer2Init) refers to stm32f0xx_misc.o(i.NVIC_Init) for NVIC_Init
    irda.o(i.Timer2Init) refers to stm32f0xx_tim.o(i.TIM_TimeBaseInit) for TIM_TimeBaseInit
    irda.o(i.Timer2Init) refers to stm32f0xx_tim.o(i.TIM_ITConfig) for TIM_ITConfig
    irda.o(i.Timer2Init) refers to stm32f0xx_tim.o(i.TIM_Cmd) for TIM_Cmd
    stm32f0xx_usart.o(i.USART_DeInit) refers to stm32f0xx_rcc.o(i.RCC_APB2PeriphResetCmd) for RCC_APB2PeriphResetCmd
    stm32f0xx_usart.o(i.USART_DeInit) refers to stm32f0xx_rcc.o(i.RCC_APB1PeriphResetCmd) for RCC_APB1PeriphResetCmd
    stm32f0xx_usart.o(i.USART_Init) refers to stm32f0xx_rcc.o(i.RCC_GetClocksFreq) for RCC_GetClocksFreq
    stm32f0xx_usart.o(i.USART_Init) refers to aeabi_sdiv.o(.text) for __aeabi_uidivmod
    radio.o(i.ASProc) refers to core.o(i.__ARM_common_switch8) for __ARM_common_switch8
    radio.o(i.ASProc) refers to radio.o(i.SaveOriginalStat) for SaveOriginalStat
    radio.o(i.ASProc) refers to radio.o(i.StatNumInc) for StatNumInc
    radio.o(i.ASProc) refers to radio.o(i.GetRadFreOctData) for GetRadFreOctData
    radio.o(i.ASProc) refers to tuner_elite.o(i.TunerSeekOn) for TunerSeekOn
    radio.o(i.ASProc) refers to radio.o(i.StartWrPll) for StartWrPll
    radio.o(i.ASProc) refers to radio.o(i.StartChkStat) for StartChkStat
    radio.o(i.ASProc) refers to aeabi_sdiv.o(.text) for __aeabi_idivmod
    radio.o(i.ASProc) refers to armuart.o(i.ReportRadioPreListinfo) for ReportRadioPreListinfo
    radio.o(i.ASProc) refers to radio.o(.data) for rRadSubSt
    radio.o(i.ASProc) refers to tuner_elite.o(.bss) for Radio_7786
    radio.o(i.ASProc) refers to core.o(.data) for rAreaSt
    radio.o(i.ASProc) refers to radio.o(.bss) for AMAsMem
    radio.o(i.ASProc) refers to tuner_elite.o(i.TunerSeekOff) for TunerSeekOff
    radio.o(i.ASProc) refers to armuart.o(i.ReportRadioBaseInfo) for ReportRadioBaseInfo
    radio.o(i.ASProc) refers to radio.o(i.ReadPresetMem) for ReadPresetMem
    radio.o(i.ASProc) refers to radio.o(i.RestoreStatNum) for RestoreStatNum
    radio.o(i.ASProc) refers to radio.o(i.BkupStatNum) for BkupStatNum
    radio.o(i.ATProc) refers to radio.o(i.StatNumInc) for StatNumInc
    radio.o(i.ATProc) refers to radio.o(i.GetRadFreOctData) for GetRadFreOctData
    radio.o(i.ATProc) refers to tuner_elite.o(i.TunerSeekOn) for TunerSeekOn
    radio.o(i.ATProc) refers to radio.o(i.StatNumDec) for StatNumDec
    radio.o(i.ATProc) refers to radio.o(i.StartWrPll) for StartWrPll
    radio.o(i.ATProc) refers to radio.o(i.StartChkStat) for StartChkStat
    radio.o(i.ATProc) refers to sch_printf.o(i.Printf) for Printf
    radio.o(i.ATProc) refers to radio.o(i.RestoreStatNum) for RestoreStatNum
    radio.o(i.ATProc) refers to radio.o(i.RadSetToDl500ms) for RadSetToDl500ms
    radio.o(i.ATProc) refers to radio.o(.data) for rRadSubSt
    radio.o(i.ATProc) refers to tuner_elite.o(.bss) for Radio_7786
    radio.o(i.BkupStatNum) refers to radio.o(.data) for cRadStatNum
    radio.o(i.ChkNoStat) refers to radio.o(.data) for ChkStatSt
    radio.o(i.ChkStatExist) refers to radio.o(.data) for ChkStatSt
    radio.o(i.ChkStatExist) refers to rds.o(.data) for rRdsFlag2
    radio.o(i.Ck7786StatProc) refers to core.o(i.__ARM_common_switch8) for __ARM_common_switch8
    radio.o(i.Ck7786StatProc) refers to radio.o(i.Wr7786CkStatProc) for Wr7786CkStatProc
    radio.o(i.Ck7786StatProc) refers to radio.o(i.ChkStatExist) for ChkStatExist
    radio.o(i.Ck7786StatProc) refers to radio.o(i.ChkNoStat) for ChkNoStat
    radio.o(i.Ck7786StatProc) refers to tuner_elite.o(i.RDSGetDataBlock) for RDSGetDataBlock
    radio.o(i.Ck7786StatProc) refers to tuner_elite.o(i.TunerSeekOff) for TunerSeekOff
    radio.o(i.Ck7786StatProc) refers to tuner_elite.o(i.RDSFlagPINew) for RDSFlagPINew
    radio.o(i.Ck7786StatProc) refers to radio.o(.data) for rRadFlg1
    radio.o(i.Ck7786StatProc) refers to rds.o(.data) for rRdsMainSt
    radio.o(i.Ck7786StatProc) refers to armuart.o(.data) for armsourceState
    radio.o(i.GetMaxOctStat) refers to radio.o(i.TunParmStartAddr) for TunParmStartAddr
    radio.o(i.GetMaxStat) refers to radio.o(i.TunParmStartAddr) for TunParmStartAddr
    radio.o(i.GetRadFreOctData) refers to radio.o(i.GetMaxStat) for GetMaxStat
    radio.o(i.GetRadFreOctData) refers to radio.o(i.TunParmStartAddr) for TunParmStartAddr
    radio.o(i.GetRadFreOctData) refers to aeabi_sdiv.o(.text) for __aeabi_idivmod
    radio.o(i.GetRadFreOctData) refers to tuner_elite.o(.bss) for Radio_7786
    radio.o(i.GetRadFreOctData) refers to radio.o(.data) for rRadFlg0
    radio.o(i.GetRadFreOctData) refers to radio.o(.bss) for Com10Buff
    radio.o(i.GetRadPlayFre) refers to radio.o(i.TunParmStartAddr) for TunParmStartAddr
    radio.o(i.GetRadPlayFre) refers to aeabi_sdiv.o(.text) for __aeabi_idivmod
    radio.o(i.GetRadPlayFre) refers to sch_printf.o(i.Printf) for Printf
    radio.o(i.GetRadPlayFre) refers to tuner_elite.o(.bss) for Radio_7786
    radio.o(i.GetRadPlayFre) refers to radio.o(.data) for rRadFlg0
    radio.o(i.GetRadPlayFre) refers to radio.o(.bss) for Com10Buff
    radio.o(i.GetRdsAFFreq) refers to radio.o(i.TunParmStartAddr) for TunParmStartAddr
    radio.o(i.GetRdsAFFreq) refers to tuner_elite.o(.bss) for Radio_7786
    radio.o(i.GetRdsAFFreq) refers to radio.o(.bss) for Com10Buff
    radio.o(i.InitAMPresetStat) refers to core.o(.data) for rAreaSt
    radio.o(i.InitAMPresetStat) refers to radio.o(.constdata) for AMStatInitTab
    radio.o(i.InitAMPresetStat) refers to radio.o(.bss) for AMPresetMem
    radio.o(i.InitFMPresetStat) refers to core.o(.data) for rAreaSt
    radio.o(i.InitFMPresetStat) refers to radio.o(.constdata) for FMStatInitTab
    radio.o(i.InitFMPresetStat) refers to radio.o(.data) for cBand
    radio.o(i.InitFMPresetStat) refers to radio.o(.bss) for FMPresetMem
    radio.o(i.InitPresetStat) refers to radio.o(i.InitFMPresetStat) for InitFMPresetStat
    radio.o(i.InitPresetStat) refers to radio.o(i.InitAMPresetStat) for InitAMPresetStat
    radio.o(i.PSProc) refers to core.o(i.__ARM_common_switch8) for __ARM_common_switch8
    radio.o(i.PSProc) refers to sch_printf.o(i.Printf) for Printf
    radio.o(i.PSProc) refers to radio.o(i.ReadPresetMem) for ReadPresetMem
    radio.o(i.PSProc) refers to radio.o(i.StartWrPll) for StartWrPll
    radio.o(i.PSProc) refers to radio.o(i.RadSetToDl500ms) for RadSetToDl500ms
    radio.o(i.PSProc) refers to tuner_elite.o(i.HIT_ForeceMute) for HIT_ForeceMute
    radio.o(i.PSProc) refers to radio.o(i.STChk) for STChk
    radio.o(i.PSProc) refers to radio.o(.data) for rRadSubSt
    radio.o(i.PSProc) refers to core.o(.data) for rAreaSt
    radio.o(i.PSStationChk) refers to radio.o(.data) for rRadFlg0
    radio.o(i.PSStationChk) refers to radio.o(.bss) for FMPresetMem
    radio.o(i.RadKyAnaly) refers to sch_printf.o(i.Printf) for Printf
    radio.o(i.RadKyAnaly) refers to tuner_elite.o(i.TunerSeekOff) for TunerSeekOff
    radio.o(i.RadKyAnaly) refers to radio.o(i.StartWrPll) for StartWrPll
    radio.o(i.RadKyAnaly) refers to radio.o(i.RadSetToDl500ms) for RadSetToDl500ms
    radio.o(i.RadKyAnaly) refers to radio.o(i.BkupStatNum) for BkupStatNum
    radio.o(i.RadKyAnaly) refers to armuart.o(i.ReportRadioBaseInfo) for ReportRadioBaseInfo
    radio.o(i.RadKyAnaly) refers to armuart.o(i.ReportRadioPreListinfo) for ReportRadioPreListinfo
    radio.o(i.RadKyAnaly) refers to radio.o(i.RestoreStatNum) for RestoreStatNum
    radio.o(i.RadKyAnaly) refers to radio.o(i.InitFMPresetStat) for InitFMPresetStat
    radio.o(i.RadKyAnaly) refers to radio.o(i.InitAMPresetStat) for InitAMPresetStat
    radio.o(i.RadKyAnaly) refers to armuart.o(i.ReportRadioSignalinfo) for ReportRadioSignalinfo
    radio.o(i.RadKyAnaly) refers to irda.o(.data) for RmtFlag
    radio.o(i.RadKyAnaly) refers to armuart.o(.data) for armsourceState
    radio.o(i.RadKyAnaly) refers to key.o(.data) for rKeyResult
    radio.o(i.RadKyAnaly) refers to radio.o(.data) for rRadFlg3
    radio.o(i.RadKyAnaly) refers to rds.o(.data) for rRdsFlag
    radio.o(i.RadKyAnaly) refers to core.o(.data) for radioinfoState1
    radio.o(i.RadKyAnaly) refers to radio.o(.constdata) for FMORTStatInitTab
    radio.o(i.RadKyAnaly) refers to radio.o(.bss) for FMPresetMem
    radio.o(i.RadKyAnaly) refers to radio.o(i.SaveCurBandMsg) for SaveCurBandMsg
    radio.o(i.RadKyAnaly) refers to radio.o(i.SaveOriginalStat) for SaveOriginalStat
    radio.o(i.RadKyAnaly) refers to rdsapp.o(i.RDSFmFreqChange) for RDSFmFreqChange
    radio.o(i.RadKyAnaly) refers to radio.o(i.RadioBreak) for RadioBreak
    radio.o(i.RadKyAnaly) refers to radio.o(i.StatNumDec) for StatNumDec
    radio.o(i.RadKyAnaly) refers to radio.o(i.StatNumInc) for StatNumInc
    radio.o(i.RadKyAnaly) refers to radio.o(i.ReadPresetMem) for ReadPresetMem
    radio.o(i.RadKyAnaly) refers to radio.o(i.GetRadFreOctData) for GetRadFreOctData
    radio.o(i.RadKyAnaly) refers to tuner_elite.o(.bss) for Radio_7786
    radio.o(i.RadKyAnaly) refers to radio.o(.conststring) for .conststring
    radio.o(i.RadKyAnaly) refers to aeabi_sdiv.o(.text) for __aeabi_idivmod
    radio.o(i.RadKyAnaly) refers to radio.o(i.WritePresetMem) for WritePresetMem
    radio.o(i.RadKyAnaly) refers to radio.o(i.StartChgBand) for StartChgBand
    radio.o(i.RadKyAnaly) refers to tuner_elite.o(i.HIT_ForeceMono) for HIT_ForeceMono
    radio.o(i.RadKyAnaly) refers to tuner_elite.o(i.HIT_ForeceMute) for HIT_ForeceMute
    radio.o(i.RadKyAnaly) refers to armuart.o(i.ReportRdsPsinfo) for ReportRdsPsinfo
    radio.o(i.RadKyAnaly) refers to armuart.o(i.ReportRdsRTinfo) for ReportRdsRTinfo
    radio.o(i.RadKyAnaly) refers to rds.o(.bss) for rRdsRTNameAct
    radio.o(i.RadListenCk) refers to radio.o(.data) for rRadMainSt
    radio.o(i.RadSetToDl500ms) refers to radio.o(i.RadioBreak) for RadioBreak
    radio.o(i.RadSetToDl500ms) refers to radio.o(i.GetRadFreOctData) for GetRadFreOctData
    radio.o(i.RadSetToDl500ms) refers to armuart.o(i.ReportRadioBaseInfo) for ReportRadioBaseInfo
    radio.o(i.RadSetToDl500ms) refers to armuart.o(i.ReportRadioPreListinfo) for ReportRadioPreListinfo
    radio.o(i.RadSetToDl500ms) refers to sch_printf.o(i.Printf) for Printf
    radio.o(i.RadSetToDl500ms) refers to radio.o(.data) for rRadMainSt
    radio.o(i.RadSetToDl500ms) refers to tuner_elite.o(.bss) for Radio_7786
    radio.o(i.RadSpKyCk) refers to rds.o(.data) for rRdsMainSt
    radio.o(i.RadSpKyCk) refers to radio.o(.data) for rRadFlg1
    radio.o(i.Radio7786ChangeBand) refers to tuner_elite.o(i.TunerChangeBand) for TunerChangeBand
    radio.o(i.Radio7786ChangeBand) refers to tuner_elite.o(i.Radio7786SetFreq) for Radio7786SetFreq
    radio.o(i.Radio7786Poweron) refers to radio.o(.data) for rRadSubSt
    radio.o(i.RadioBreak) refers to core.o(.data) for radioinfoState1
    radio.o(i.RadioInit) refers to drive.o(i.MuteOn) for MuteOn
    radio.o(i.RadioInit) refers to radio.o(i.InitPresetStat) for InitPresetStat
    radio.o(i.RadioInit) refers to radio.o(i.StartChgBand) for StartChgBand
    radio.o(i.RadioInit) refers to bsp.o(i.SysDelay) for SysDelay
    radio.o(i.RadioInit) refers to rdsapp.o(i.RDSInit) for RDSInit
    radio.o(i.RadioInit) refers to radio.o(.data) for rRadFlg0
    radio.o(i.RadioInit) refers to core.o(.data) for radioinfoState1
    radio.o(i.RadioInit) refers to tuner_elite.o(.bss) for Radio_7786
    radio.o(i.RadioInit) refers to radio.o(.bss) for BandMsgMem
    radio.o(i.RadioProc) refers to sch_printf.o(i.Printf) for Printf
    radio.o(i.RadioProc) refers to drive.o(i.MuteTimeset) for MuteTimeset
    radio.o(i.RadioProc) refers to radio.o(i.SetRadPwrDn) for SetRadPwrDn
    radio.o(i.RadioProc) refers to radio.o(i.RadioBreak) for RadioBreak
    radio.o(i.RadioProc) refers to tuner_elite.o(i.TunerStartupSeq) for TunerStartupSeq
    radio.o(i.RadioProc) refers to radio.o(i.StartWrPll) for StartWrPll
    radio.o(i.RadioProc) refers to radio.o(i.Wr7786PllProc) for Wr7786PllProc
    radio.o(i.RadioProc) refers to radio.o(i.Ck7786StatProc) for Ck7786StatProc
    radio.o(i.RadioProc) refers to radio.o(i.RadKyAnaly) for RadKyAnaly
    radio.o(i.RadioProc) refers to core.o(i.__ARM_common_switch8) for __ARM_common_switch8
    radio.o(i.RadioProc) refers to tuner_elite.o(i.TunerSeekOff) for TunerSeekOff
    radio.o(i.RadioProc) refers to armuart.o(i.ReportRdsPsinfo) for ReportRdsPsinfo
    radio.o(i.RadioProc) refers to armuart.o(i.ReportRdsRTinfo) for ReportRdsRTinfo
    radio.o(i.RadioProc) refers to tuner_elite.o(i.HIT_ForeceMute) for HIT_ForeceMute
    radio.o(i.RadioProc) refers to radio.o(i.STChk) for STChk
    radio.o(i.RadioProc) refers to radio.o(i.RadSetToDl500ms) for RadSetToDl500ms
    radio.o(i.RadioProc) refers to tuner_elite.o(i.Elite_CmdStartup) for Elite_CmdStartup
    radio.o(i.RadioProc) refers to radio.o(i.PSProc) for PSProc
    radio.o(i.RadioProc) refers to radio.o(i.ASProc) for ASProc
    radio.o(i.RadioProc) refers to radio.o(i.ATProc) for ATProc
    radio.o(i.RadioProc) refers to radio.o(i.ScanProc) for ScanProc
    radio.o(i.RadioProc) refers to radio.o(.data) for rRadMainSt
    radio.o(i.RadioProc) refers to armuart.o(.data) for armsourceState
    radio.o(i.RadioProc) refers to core.o(.bss) for core
    radio.o(i.RadioProc) refers to rds.o(.data) for rRdsPsNameAct
    radio.o(i.RadioProc) refers to rds.o(.bss) for rRdsRTNameAct
    radio.o(i.RadioProc) refers to tuner_elite.o(.bss) for Radio_7786
    radio.o(i.ReadBandMsg) refers to radio.o(i.GetRadFreOctData) for GetRadFreOctData
    radio.o(i.ReadBandMsg) refers to radio.o(.data) for rRadFlg0
    radio.o(i.ReadBandMsg) refers to radio.o(.bss) for BandMsgMem
    radio.o(i.ReadBandMsg) refers to tuner_elite.o(.bss) for Radio_7786
    radio.o(i.ReadPresetMem) refers to radio.o(i.GetRadFreOctData) for GetRadFreOctData
    radio.o(i.ReadPresetMem) refers to armuart.o(i.ReportRadioPreListinfo) for ReportRadioPreListinfo
    radio.o(i.ReadPresetMem) refers to radio.o(.data) for rRadFlg0
    radio.o(i.ReadPresetMem) refers to radio.o(.bss) for AMPresetMem
    radio.o(i.ReadPresetMem) refers to tuner_elite.o(.bss) for Radio_7786
    radio.o(i.RestoreStatNum) refers to tuner_elite.o(i.TunerSeekOff) for TunerSeekOff
    radio.o(i.RestoreStatNum) refers to radio.o(i.StartWrPll) for StartWrPll
    radio.o(i.RestoreStatNum) refers to radio.o(.data) for cRadStatBak
    radio.o(i.RestoreStatNum1) refers to tuner_elite.o(i.TunerSeekOff) for TunerSeekOff
    radio.o(i.RestoreStatNum1) refers to radio.o(i.GetRadFreOctData) for GetRadFreOctData
    radio.o(i.RestoreStatNum1) refers to radio.o(.data) for cRadStatBak
    radio.o(i.RestoreStatNum1) refers to tuner_elite.o(.bss) for Radio_7786
    radio.o(i.STChk) refers to tuner_elite.o(i.Elite_GetAverageQuality) for Elite_GetAverageQuality
    radio.o(i.STChk) refers to armuart.o(i.ReportRadioBaseInfo) for ReportRadioBaseInfo
    radio.o(i.STChk) refers to radio.o(.data) for Rad_SMeter_X64ms
    radio.o(i.STChk) refers to rds.o(.data) for cRdsPiChkCnt
    radio.o(i.STChk) refers to tuner_elite.o(.bss) for Radio_7786
    radio.o(i.STChk) refers to core.o(.data) for radioinfoState1
    radio.o(i.SaveCurBandMsg) refers to radio.o(i.RestoreStatNum) for RestoreStatNum
    radio.o(i.SaveCurBandMsg) refers to tuner_elite.o(i.TunerSeekOff) for TunerSeekOff
    radio.o(i.SaveCurBandMsg) refers to radio.o(.data) for rRadFlg0
    radio.o(i.SaveCurBandMsg) refers to radio.o(.bss) for BandMsgMem
    radio.o(i.SaveOriginalStat) refers to radio.o(.data) for cRadStatNum
    radio.o(i.ScanProc) refers to rdsapp.o(i.RDSTimerInit) for RDSTimerInit
    radio.o(i.ScanProc) refers to radio.o(i.StatNumInc) for StatNumInc
    radio.o(i.ScanProc) refers to radio.o(i.StartWrPll) for StartWrPll
    radio.o(i.ScanProc) refers to radio.o(i.StartChkStat) for StartChkStat
    radio.o(i.ScanProc) refers to radio.o(i.BkupStatNum) for BkupStatNum
    radio.o(i.ScanProc) refers to radio.o(i.RestoreStatNum) for RestoreStatNum
    radio.o(i.ScanProc) refers to radio.o(i.RadSetToDl500ms) for RadSetToDl500ms
    radio.o(i.ScanProc) refers to sch_printf.o(i.Printf) for Printf
    radio.o(i.ScanProc) refers to radio.o(i.STChk) for STChk
    radio.o(i.ScanProc) refers to radio.o(.data) for rRadSubSt
    radio.o(i.SetRadPwrDn) refers to radio.o(i.RestoreStatNum) for RestoreStatNum
    radio.o(i.SetRadPwrDn) refers to radio.o(.data) for rRadFlg0
    radio.o(i.SetRadPwrDn) refers to rds.o(.data) for rRdsMainSt
    radio.o(i.SetRadPwrOff) refers to radio.o(.data) for rRadFlg0
    radio.o(i.StartChgBand) refers to radio.o(i.SaveCurBandMsg) for SaveCurBandMsg
    radio.o(i.StartChgBand) refers to tuner_elite.o(i.Disable_RDS_Int) for Disable_RDS_Int
    radio.o(i.StartChgBand) refers to tuner_elite.o(i.Enable_RDS_Int) for Enable_RDS_Int
    radio.o(i.StartChgBand) refers to radio.o(i.ReadBandMsg) for ReadBandMsg
    radio.o(i.StartChgBand) refers to radio.o(i.RadioBreak) for RadioBreak
    radio.o(i.StartChgBand) refers to armuart.o(i.ReportRadioBaseInfo) for ReportRadioBaseInfo
    radio.o(i.StartChgBand) refers to armuart.o(i.ReportRadioSignalinfo) for ReportRadioSignalinfo
    radio.o(i.StartChgBand) refers to armuart.o(i.ReportRadioPreListinfo) for ReportRadioPreListinfo
    radio.o(i.StartChgBand) refers to radio.o(.data) for cBand
    radio.o(i.StartChgBand) refers to tuner_elite.o(.bss) for Radio_7786
    radio.o(i.StartChkStat) refers to radio.o(.data) for rRadFlg1
    radio.o(i.StartWrPll) refers to radio.o(i.GetRadFreOctData) for GetRadFreOctData
    radio.o(i.StartWrPll) refers to radio.o(.data) for rPrgmPllSt
    radio.o(i.StartWrPll) refers to tuner_elite.o(.bss) for Radio_7786
    radio.o(i.StatNumDec) refers to radio.o(i.TunParmStartAddr) for TunParmStartAddr
    radio.o(i.StatNumDec) refers to radio.o(i.GetMaxStat) for GetMaxStat
    radio.o(i.StatNumDec) refers to radio.o(.bss) for Com10Buff
    radio.o(i.StatNumDec) refers to radio.o(.data) for rRadFlg0
    radio.o(i.StatNumDec) refers to core.o(.data) for rAreaSt
    radio.o(i.StatNumInc) refers to radio.o(i.TunParmStartAddr) for TunParmStartAddr
    radio.o(i.StatNumInc) refers to radio.o(i.GetMaxStat) for GetMaxStat
    radio.o(i.StatNumInc) refers to radio.o(.bss) for Com10Buff
    radio.o(i.StatNumInc) refers to radio.o(.data) for rRadFlg0
    radio.o(i.StatNumInc) refers to core.o(.data) for rAreaSt
    radio.o(i.StatNumMulN) refers to radio.o(.data) for cRadStatNum
    radio.o(i.TunAMParmStartAddr) refers to core.o(.data) for rAreaSt
    radio.o(i.TunAMParmStartAddr) refers to radio.o(.constdata) for AMPrmTab
    radio.o(i.TunAMParmStartAddr) refers to radio.o(.data) for cBand
    radio.o(i.TunFMORITParmStartAddr) refers to radio.o(.constdata) for FMORTPrmTab
    radio.o(i.TunFMParmStartAddr) refers to core.o(.data) for rAreaSt
    radio.o(i.TunFMParmStartAddr) refers to radio.o(.constdata) for FMPrmTab
    radio.o(i.TunFMParmStartAddr) refers to radio.o(.data) for cBand
    radio.o(i.TunParmStartAddr) refers to radio.o(.data) for rRadFlg0
    radio.o(i.TunParmStartAddr) refers to core.o(.data) for rAreaSt
    radio.o(i.TunParmStartAddr) refers to radio.o(.constdata) for FMPrmTab
    radio.o(i.Wr7786CkStatProc) refers to tuner_elite.o(i.Elite_CmdReadSeekStatus) for Elite_CmdReadSeekStatus
    radio.o(i.Wr7786CkStatProc) refers to sch_printf.o(i.Printf) for Printf
    radio.o(i.Wr7786CkStatProc) refers to radio.o(i.GetRadPlayFre) for GetRadPlayFre
    radio.o(i.Wr7786CkStatProc) refers to tuner_elite.o(i.TunerSeekOff) for TunerSeekOff
    radio.o(i.Wr7786CkStatProc) refers to radio.o(.data) for rSi475xCkStationSt
    radio.o(i.Wr7786CkStatProc) refers to tuner_elite.o(.bss) for Radio_7786
    radio.o(i.Wr7786CkStatProc) refers to radio.o(.bss) for Com10Buff
    radio.o(i.Wr7786CkStatProc) refers to rds.o(.data) for rRdsMainSt
    radio.o(i.Wr7786PllProc) refers to rdsapp.o(i.RDSFmFreqChange) for RDSFmFreqChange
    radio.o(i.Wr7786PllProc) refers to armuart.o(i.ReportRdsPsinfo) for ReportRdsPsinfo
    radio.o(i.Wr7786PllProc) refers to armuart.o(i.ReportRdsRTinfo) for ReportRdsRTinfo
    radio.o(i.Wr7786PllProc) refers to tuner_elite.o(i.TunerSetAFCheck) for TunerSetAFCheck
    radio.o(i.Wr7786PllProc) refers to armuart.o(i.ReportRadioSignalinfo) for ReportRadioSignalinfo
    radio.o(i.Wr7786PllProc) refers to tuner_elite.o(i.Radio7786SetFreq) for Radio7786SetFreq
    radio.o(i.Wr7786PllProc) refers to sch_printf.o(i.Printf) for Printf
    radio.o(i.Wr7786PllProc) refers to radio.o(i.RadioInit) for RadioInit
    radio.o(i.Wr7786PllProc) refers to radio.o(.data) for rRadFlg0
    radio.o(i.Wr7786PllProc) refers to rds.o(.data) for rRdsAfDetSt
    radio.o(i.Wr7786PllProc) refers to tuner_elite.o(.bss) for Radio_7786
    radio.o(i.WritePresetMem) refers to radio.o(i.GetRadFreOctData) for GetRadFreOctData
    radio.o(i.WritePresetMem) refers to armuart.o(i.ReportRadioPreListinfo) for ReportRadioPreListinfo
    radio.o(i.WritePresetMem) refers to radio.o(.data) for rRadFlg0
    radio.o(i.WritePresetMem) refers to radio.o(.bss) for AMPresetMem
    radio.o(i.WritePresetMem) refers to tuner_elite.o(.bss) for Radio_7786
    usart4.o(i.AnalysisCanStr) refers to usart4.o(.data) for IO_CAN_R_EXIST
    usart4.o(i.ProcessVM4Can) refers to sch_printf.o(i.Printf) for Printf
    usart4.o(i.ProcessVM4Can) refers to usart4.o(i.ReadVM4ArmCanStr) for ReadVM4ArmCanStr
    usart4.o(i.ProcessVM4Can) refers to usart4.o(.data) for usart4Receivesave
    usart4.o(i.ProcessVM4Can) refers to usart1.o(.data) for bCan4Timeour
    usart4.o(i.ReadVM4ArmCanStr) refers to sch_printf.o(i.Printf) for Printf
    usart4.o(i.ReadVM4ArmCanStr) refers to usart4.o(i.AnalysisCanStr) for AnalysisCanStr
    usart4.o(i.ReadVM4ArmCanStr) refers to armuart.o(i.Uart2SendStr) for Uart2SendStr
    usart4.o(i.ReadVM4ArmCanStr) refers to usart4.o(.bss) for Cancommandbuff
    usart4.o(i.ReadVM4ArmCanStr) refers to usart4.o(.data) for usart4Receiveget
    usart4.o(i.Uart4SendStr) refers to usart4.o(.data) for usart4SendSave
    usart4.o(i.Uart4SendStr) refers to usart4.o(.bss) for usart4Sendbuff
    usart4.o(i.VM4CanInit) refers to usart4.o(.data) for usart4SendSave
    rtc_time.o(i.RTC_AlarmShow) refers to stm32f0xx_rtc.o(i.RTC_GetAlarm) for RTC_GetAlarm
    rtc_time.o(i.RTC_AlarmShow) refers to sch_printf.o(i.Printf) for Printf
    rtc_time.o(i.RTC_Calibration) refers to dflti.o(.text) for __aeabi_ui2d
    rtc_time.o(i.RTC_Calibration) refers to dmul.o(.text) for __aeabi_dmul
    rtc_time.o(i.RTC_Calibration) refers to d2f.o(.text) for __aeabi_d2f
    rtc_time.o(i.RTC_Calibration) refers to f2d.o(.text) for __aeabi_f2d
    rtc_time.o(i.RTC_Calibration) refers to ddiv.o(.text) for __aeabi_ddiv
    rtc_time.o(i.RTC_Calibration) refers to ffixui.o(.text) for __aeabi_f2uiz
    rtc_time.o(i.RTC_Calibration) refers to daddsub.o(.text) for __aeabi_dadd
    rtc_time.o(i.RTC_Calibration) refers to drlef.o(x$fpl$drleqf) for __aeabi_cdrcmple
    rtc_time.o(i.RTC_Calibration) refers to stm32f0xx_rtc.o(i.RTC_SmoothCalibConfig) for RTC_SmoothCalibConfig
    rtc_time.o(i.RTC_Calibration) refers to rtc_time.o(.data) for FastSecPer30days
    rtc_time.o(i.RTC_Config) refers to stm32f0xx_rcc.o(i.RCC_APB1PeriphClockCmd) for RCC_APB1PeriphClockCmd
    rtc_time.o(i.RTC_Config) refers to stm32f0xx_pwr.o(i.PWR_BackupAccessCmd) for PWR_BackupAccessCmd
    rtc_time.o(i.RTC_Config) refers to stm32f0xx_rcc.o(i.RCC_LSEConfig) for RCC_LSEConfig
    rtc_time.o(i.RTC_Config) refers to stm32f0xx_rcc.o(i.RCC_GetFlagStatus) for RCC_GetFlagStatus
    rtc_time.o(i.RTC_Config) refers to stm32f0xx_rcc.o(i.RCC_RTCCLKConfig) for RCC_RTCCLKConfig
    rtc_time.o(i.RTC_Config) refers to stm32f0xx_rcc.o(i.RCC_RTCCLKCmd) for RCC_RTCCLKCmd
    rtc_time.o(i.RTC_Config) refers to stm32f0xx_rtc.o(i.RTC_WaitForSynchro) for RTC_WaitForSynchro
    rtc_time.o(i.RTC_Config) refers to rtc_time.o(.data) for SynchPrediv
    rtc_time.o(i.RTC_DateShow) refers to stm32f0xx_rtc.o(i.RTC_GetDate) for RTC_GetDate
    rtc_time.o(i.RTC_DateShow) refers to sch_printf.o(i.Printf) for Printf
    rtc_time.o(i.RTC_Proc) refers to stm32f0xx_rtc.o(i.RTC_ReadBackupRegister) for RTC_ReadBackupRegister
    rtc_time.o(i.RTC_Proc) refers to rtc_time.o(i.RTC_Config) for RTC_Config
    rtc_time.o(i.RTC_Proc) refers to rtc_time.o(i.RTC_Calibration) for RTC_Calibration
    rtc_time.o(i.RTC_Proc) refers to stm32f0xx_rtc.o(i.RTC_Init) for RTC_Init
    rtc_time.o(i.RTC_Proc) refers to sch_printf.o(i.Printf) for Printf
    rtc_time.o(i.RTC_Proc) refers to rtc_time.o(i.RTC_TimeRegulate) for RTC_TimeRegulate
    rtc_time.o(i.RTC_Proc) refers to stm32f0xx_rcc.o(i.RCC_GetFlagStatus) for RCC_GetFlagStatus
    rtc_time.o(i.RTC_Proc) refers to stm32f0xx_rcc.o(i.RCC_APB1PeriphClockCmd) for RCC_APB1PeriphClockCmd
    rtc_time.o(i.RTC_Proc) refers to stm32f0xx_pwr.o(i.PWR_BackupAccessCmd) for PWR_BackupAccessCmd
    rtc_time.o(i.RTC_Proc) refers to stm32f0xx_rtc.o(i.RTC_WaitForSynchro) for RTC_WaitForSynchro
    rtc_time.o(i.RTC_Proc) refers to rtc_time.o(.data) for AsynchPrediv
    rtc_time.o(i.RTC_TimeRegulate) refers to sch_printf.o(i.Printf) for Printf
    rtc_time.o(i.RTC_TimeRegulate) refers to stm32f0xx_rtc.o(i.RTC_SetTime) for RTC_SetTime
    rtc_time.o(i.RTC_TimeRegulate) refers to rtc_time.o(i.RTC_TimeShow) for RTC_TimeShow
    rtc_time.o(i.RTC_TimeRegulate) refers to stm32f0xx_rtc.o(i.RTC_ITConfig) for RTC_ITConfig
    rtc_time.o(i.RTC_TimeRegulate) refers to stm32f0xx_rtc.o(i.RTC_WriteBackupRegister) for RTC_WriteBackupRegister
    rtc_time.o(i.RTC_TimeRegulate) refers to aeabi_sdiv.o(.text) for __aeabi_idivmod
    rtc_time.o(i.RTC_TimeRegulate) refers to stm32f0xx_rtc.o(i.RTC_SetDate) for RTC_SetDate
    rtc_time.o(i.RTC_TimeRegulate) refers to rtc_time.o(i.RTC_DateShow) for RTC_DateShow
    rtc_time.o(i.RTC_TimeRegulate) refers to stm32f0xx_rtc.o(i.RTC_TimeStampCmd) for RTC_TimeStampCmd
    rtc_time.o(i.RTC_TimeRegulate) refers to rtc_time.o(.conststring) for .conststring
    rtc_time.o(i.RTC_TimeRegulate) refers to drive.o(.bss) for armtime
    rtc_time.o(i.RTC_TimeShow) refers to stm32f0xx_rtc.o(i.RTC_GetTime) for RTC_GetTime
    rtc_time.o(i.RTC_TimeShow) refers to sch_printf.o(i.Printf) for Printf
    stm32f0xx_rtc.o(i.RTC_DeInit) refers to stm32f0xx_rtc.o(i.RTC_EnterInitMode) for RTC_EnterInitMode
    stm32f0xx_rtc.o(i.RTC_DeInit) refers to stm32f0xx_rtc.o(i.RTC_WaitForSynchro) for RTC_WaitForSynchro
    stm32f0xx_rtc.o(i.RTC_GetAlarm) refers to stm32f0xx_rtc.o(i.RTC_Bcd2ToByte) for RTC_Bcd2ToByte
    stm32f0xx_rtc.o(i.RTC_GetDate) refers to stm32f0xx_rtc.o(i.RTC_Bcd2ToByte) for RTC_Bcd2ToByte
    stm32f0xx_rtc.o(i.RTC_GetTime) refers to stm32f0xx_rtc.o(i.RTC_Bcd2ToByte) for RTC_Bcd2ToByte
    stm32f0xx_rtc.o(i.RTC_GetTimeStamp) refers to stm32f0xx_rtc.o(i.RTC_Bcd2ToByte) for RTC_Bcd2ToByte
    stm32f0xx_rtc.o(i.RTC_Init) refers to stm32f0xx_rtc.o(i.RTC_EnterInitMode) for RTC_EnterInitMode
    stm32f0xx_rtc.o(i.RTC_Init) refers to stm32f0xx_rtc.o(i.RTC_ExitInitMode) for RTC_ExitInitMode
    stm32f0xx_rtc.o(i.RTC_RefClockCmd) refers to stm32f0xx_rtc.o(i.RTC_EnterInitMode) for RTC_EnterInitMode
    stm32f0xx_rtc.o(i.RTC_RefClockCmd) refers to stm32f0xx_rtc.o(i.RTC_ExitInitMode) for RTC_ExitInitMode
    stm32f0xx_rtc.o(i.RTC_SetAlarm) refers to stm32f0xx_rtc.o(i.RTC_Bcd2ToByte) for RTC_Bcd2ToByte
    stm32f0xx_rtc.o(i.RTC_SetAlarm) refers to stm32f0xx_rtc.o(i.RTC_ByteToBcd2) for RTC_ByteToBcd2
    stm32f0xx_rtc.o(i.RTC_SetDate) refers to stm32f0xx_rtc.o(i.RTC_Bcd2ToByte) for RTC_Bcd2ToByte
    stm32f0xx_rtc.o(i.RTC_SetDate) refers to stm32f0xx_rtc.o(i.RTC_ByteToBcd2) for RTC_ByteToBcd2
    stm32f0xx_rtc.o(i.RTC_SetDate) refers to stm32f0xx_rtc.o(i.RTC_EnterInitMode) for RTC_EnterInitMode
    stm32f0xx_rtc.o(i.RTC_SetDate) refers to stm32f0xx_rtc.o(i.RTC_ExitInitMode) for RTC_ExitInitMode
    stm32f0xx_rtc.o(i.RTC_SetDate) refers to stm32f0xx_rtc.o(i.RTC_WaitForSynchro) for RTC_WaitForSynchro
    stm32f0xx_rtc.o(i.RTC_SetTime) refers to stm32f0xx_rtc.o(i.RTC_Bcd2ToByte) for RTC_Bcd2ToByte
    stm32f0xx_rtc.o(i.RTC_SetTime) refers to stm32f0xx_rtc.o(i.RTC_ByteToBcd2) for RTC_ByteToBcd2
    stm32f0xx_rtc.o(i.RTC_SetTime) refers to stm32f0xx_rtc.o(i.RTC_EnterInitMode) for RTC_EnterInitMode
    stm32f0xx_rtc.o(i.RTC_SetTime) refers to stm32f0xx_rtc.o(i.RTC_ExitInitMode) for RTC_ExitInitMode
    stm32f0xx_rtc.o(i.RTC_SetTime) refers to stm32f0xx_rtc.o(i.RTC_WaitForSynchro) for RTC_WaitForSynchro
    stm32f0xx_rtc.o(i.RTC_SynchroShiftConfig) refers to stm32f0xx_rtc.o(i.RTC_WaitForSynchro) for RTC_WaitForSynchro
    stm32f0xx_pwr.o(i.PWR_DeInit) refers to stm32f0xx_rcc.o(i.RCC_APB1PeriphResetCmd) for RCC_APB1PeriphResetCmd
    sch_common.o(i.GetAverage_U16) refers to aeabi_sdiv.o(.text) for __aeabi_uidivmod
    sch_common.o(i.GetAverage_U8) refers to aeabi_sdiv.o(.text) for __aeabi_idivmod
    sch_common.o(i.SysWaitMs) refers to sch_common.o(i.SysWaitUs) for SysWaitUs
    sch_common.o(i.SysWaitUs) refers to sch_common.o(i.SysWait1Us) for SysWait1Us
    sch_message.o(i.ClearAllModeMessage) refers to sch_message.o(i.ClearMessage) for ClearMessage
    sch_message.o(i.ClearMessage) refers to sch_queue.o(i.Queue_Init) for Queue_Init
    sch_message.o(i.ClearMessage) refers to sch_message.o(.data) for MESSAGE_QUEUE
    sch_message.o(i.GetMessage) refers to sch_queue.o(i.Queue_Out) for Queue_Out
    sch_message.o(i.GetMessage) refers to sch_message.o(.data) for MESSAGE_QUEUE
    sch_message.o(i.InsertMessage) refers to sch_queue.o(i.Queue_Insert) for Queue_Insert
    sch_message.o(i.InsertMessage) refers to sch_message.o(.data) for MESSAGE_QUEUE
    sch_message.o(i.PostMessage) refers to sch_queue.o(i.Queue_In) for Queue_In
    sch_message.o(i.PostMessage) refers to sch_message.o(.data) for MESSAGE_QUEUE
    sch_message.o(.data) refers to sch_message.o(.bss) for Queue
    sch_printf.o(i.Print_To_Buf) refers to mw_uart.o(i.UartTxData_Direct) for UartTxData_Direct
    sch_printf.o(i.Printf) refers to sch_printf.o(i.Print_To_Buf) for Print_To_Buf
    sch_printf.o(i.Printf) refers to sch_printf.o(i.__Printf_Conversion) for __Printf_Conversion
    sch_printf.o(i.__Printf_Conversion) refers to rt_memcpy.o(.emb_text) for __aeabi_memcpy4
    sch_printf.o(i.__Printf_Conversion) refers to aeabi_sdiv.o(.text) for __aeabi_uidivmod
    sch_printf.o(.constdata) refers to sch_printf.o(.conststring) for .conststring
    sch_queue.o(i.Queue_In) refers to aeabi_sdiv.o(.text) for __aeabi_idivmod
    sch_queue.o(i.Queue_In) refers to sch_common.o(i.sch_memcpy) for sch_memcpy
    sch_queue.o(i.Queue_Init) refers to sch_common.o(i.sch_memset) for sch_memset
    sch_queue.o(i.Queue_Insert) refers to aeabi_sdiv.o(.text) for __aeabi_idivmod
    sch_queue.o(i.Queue_Insert) refers to sch_common.o(i.sch_memcpy) for sch_memcpy
    sch_queue.o(i.Queue_Out) refers to aeabi_sdiv.o(.text) for __aeabi_idivmod
    sch_queue.o(i.Queue_Out) refers to sch_common.o(i.sch_memcpy) for sch_memcpy
    mw_uart.o(i.SysUartInit) refers to core.o(i.__ARM_common_switch8) for __ARM_common_switch8
    mw_uart.o(i.SysUartInit) refers to stm32f0xx_rcc.o(i.RCC_USARTCLKConfig) for RCC_USARTCLKConfig
    mw_uart.o(i.SysUartInit) refers to stm32f0xx_rcc.o(i.RCC_AHBPeriphClockCmd) for RCC_AHBPeriphClockCmd
    mw_uart.o(i.SysUartInit) refers to stm32f0xx_rcc.o(i.RCC_APB2PeriphClockCmd) for RCC_APB2PeriphClockCmd
    mw_uart.o(i.SysUartInit) refers to stm32f0xx_gpio.o(i.GPIO_PinAFConfig) for GPIO_PinAFConfig
    mw_uart.o(i.SysUartInit) refers to stm32f0xx_gpio.o(i.GPIO_Init) for GPIO_Init
    mw_uart.o(i.SysUartInit) refers to stm32f0xx_usart.o(i.USART_Init) for USART_Init
    mw_uart.o(i.SysUartInit) refers to stm32f0xx_misc.o(i.NVIC_Init) for NVIC_Init
    mw_uart.o(i.SysUartInit) refers to stm32f0xx_usart.o(i.USART_ClearFlag) for USART_ClearFlag
    mw_uart.o(i.SysUartInit) refers to stm32f0xx_usart.o(i.USART_ITConfig) for USART_ITConfig
    mw_uart.o(i.SysUartInit) refers to stm32f0xx_usart.o(i.USART_Cmd) for USART_Cmd
    mw_uart.o(i.SysUartInit) refers to stm32f0xx_rcc.o(i.RCC_APB1PeriphClockCmd) for RCC_APB1PeriphClockCmd
    mw_uart.o(i.SysUartInit) refers to mw_uart.o(i.UartBufInit) for UartBufInit
    mw_uart.o(i.UART_IntSerive) refers to stm32f0xx_usart.o(i.USART_GetITStatus) for USART_GetITStatus
    mw_uart.o(i.UART_IntSerive) refers to stm32f0xx_usart.o(i.USART_ClearITPendingBit) for USART_ClearITPendingBit
    mw_uart.o(i.UART_IntSerive) refers to stm32f0xx_usart.o(i.USART_ITConfig) for USART_ITConfig
    mw_uart.o(i.UART_IntSerive) refers to stm32f0xx_usart.o(i.USART_ReceiveData) for USART_ReceiveData
    mw_uart.o(i.UART_IntSerive) refers to mw_uart.o(i.Uart_Rx_DataPro) for Uart_Rx_DataPro
    mw_uart.o(i.UART_IntSerive) refers to stm32f0xx_usart.o(i.USART_GetFlagStatus) for USART_GetFlagStatus
    mw_uart.o(i.UART_IntSerive) refers to stm32f0xx_usart.o(i.USART_ClearFlag) for USART_ClearFlag
    mw_uart.o(i.UART_IntSerive) refers to mw_uart.o(i.Uart_Tx_DataPro) for Uart_Tx_DataPro
    mw_uart.o(i.UART_IntSerive) refers to mw_uart.o(.data) for Uart_Arry
    mw_uart.o(i.UartBufCnt) refers to sch_queue.o(i.Queue_Cnt) for Queue_Cnt
    mw_uart.o(i.UartBufCnt) refers to mw_uart.o(.constdata) for UartBufAddr
    mw_uart.o(i.UartBufInit) refers to sch_queue.o(i.Queue_Init) for Queue_Init
    mw_uart.o(i.UartBufInit) refers to mw_uart.o(.constdata) for UartBufAddr
    mw_uart.o(i.UartGetFromBuf) refers to sch_queue.o(i.Queue_Out) for Queue_Out
    mw_uart.o(i.UartGetFromBuf) refers to mw_uart.o(.constdata) for UartBufAddr
    mw_uart.o(i.UartPutToBuf) refers to sch_queue.o(i.Queue_In) for Queue_In
    mw_uart.o(i.UartPutToBuf) refers to mw_uart.o(.constdata) for UartBufAddr
    mw_uart.o(i.UartRxCnt) refers to mw_uart.o(i.UartBufCnt) for UartBufCnt
    mw_uart.o(i.UartRxData) refers to mw_uart.o(i.UartGetFromBuf) for UartGetFromBuf
    mw_uart.o(i.UartSendData8) refers to stm32f0xx_usart.o(i.USART_SendData) for USART_SendData
    mw_uart.o(i.UartSendData8) refers to mw_uart.o(.data) for Uart_Arry
    mw_uart.o(i.UartTxCnt) refers to mw_uart.o(i.UartBufCnt) for UartBufCnt
    mw_uart.o(i.UartTxData) refers to mw_uart.o(i.UartTxCnt) for UartTxCnt
    mw_uart.o(i.UartTxData) refers to mw_uart.o(i.UartPutToBuf) for UartPutToBuf
    mw_uart.o(i.UartTxData) refers to mw_uart.o(i.Uart_Tx_DataPro) for Uart_Tx_DataPro
    mw_uart.o(i.UartTxData_Direct) refers to mw_uart.o(i.UartSendData8) for UartSendData8
    mw_uart.o(i.UartTxData_Direct) refers to stm32f0xx_usart.o(i.USART_GetFlagStatus) for USART_GetFlagStatus
    mw_uart.o(i.UartTxData_Direct) refers to mw_uart.o(.data) for Uart_Arry
    mw_uart.o(i.UartTxIntDis) refers to stm32f0xx_usart.o(i.USART_ITConfig) for USART_ITConfig
    mw_uart.o(i.UartTxIntDis) refers to mw_uart.o(.data) for Uart_Arry
    mw_uart.o(i.UartTxIntEn) refers to stm32f0xx_usart.o(i.USART_ITConfig) for USART_ITConfig
    mw_uart.o(i.UartTxIntEn) refers to mw_uart.o(.data) for Uart_Arry
    mw_uart.o(i.Uart_Rx_DataPro) refers to mw_uart.o(i.UartPutToBuf) for UartPutToBuf
    mw_uart.o(i.Uart_Tx_DataPro) refers to mw_uart.o(i.UartTxCnt) for UartTxCnt
    mw_uart.o(i.Uart_Tx_DataPro) refers to mw_uart.o(i.UartTxIntDis) for UartTxIntDis
    mw_uart.o(i.Uart_Tx_DataPro) refers to mw_uart.o(i.UartGetFromBuf) for UartGetFromBuf
    mw_uart.o(i.Uart_Tx_DataPro) refers to mw_uart.o(i.UartSendData8) for UartSendData8
    mw_uart.o(i.Uart_Tx_DataPro) refers to mw_uart.o(i.UartTxIntEn) for UartTxIntEn
    mw_uart.o(.constdata) refers to mw_uart.o(.data) for UART0_RX_QUEUE
    mw_uart.o(.data) refers to mw_uart.o(.bss) for Uart0_TX_buf
    rds.o(i.AfDetProc) refers to core.o(i.__ARM_common_switch8) for __ARM_common_switch8
    rds.o(i.AfDetProc) refers to radio.o(i.RestoreStatNum1) for RestoreStatNum1
    rds.o(i.AfDetProc) refers to tuner_elite.o(i.TunerSetAFChangeFreq) for TunerSetAFChangeFreq
    rds.o(i.AfDetProc) refers to radio.o(i.GetRdsAFFreq) for GetRdsAFFreq
    rds.o(i.AfDetProc) refers to radio.o(i.BkupStatNum) for BkupStatNum
    rds.o(i.AfDetProc) refers to tuner_elite.o(i.TunerSetAFCheck) for TunerSetAFCheck
    rds.o(i.AfDetProc) refers to tuner_elite.o(i.TunerReadAFSeekStatus) for TunerReadAFSeekStatus
    rds.o(i.AfDetProc) refers to tuner_elite.o(i.TunerSetAFEnd) for TunerSetAFEnd
    rds.o(i.AfDetProc) refers to radio.o(i.GetRadPlayFre) for GetRadPlayFre
    rds.o(i.AfDetProc) refers to armuart.o(i.ReportRadioSignalinfo) for ReportRadioSignalinfo
    rds.o(i.AfDetProc) refers to armuart.o(i.ReportRadioPreListinfo) for ReportRadioPreListinfo
    rds.o(i.AfDetProc) refers to rds.o(.data) for rRdsFlag2
    rds.o(i.AfDetProc) refers to radio.o(.data) for rRadFlg1
    rds.o(i.AfDetProc) refers to rds.o(.bss) for rRdsDafFmFreq
    rds.o(i.AfDetProc) refers to tuner_elite.o(.bss) for Radio_7786
    rds.o(i.MeasureAfList) refers to tuner_elite.o(i.Elite_GetAverageQuality) for Elite_GetAverageQuality
    rds.o(i.MeasureAfList) refers to aeabi_sdiv.o(.text) for __aeabi_idivmod
    rds.o(i.MeasureAfList) refers to rds.o(.data) for rRdsFlag
    rds.o(i.MeasureAfList) refers to radio.o(.data) for rRadMainSt
    rds.o(i.MeasureAfList) refers to tuner_elite.o(.bss) for Radio_7786
    rds.o(i.PiSeekProc) refers to radio.o(i.SaveOriginalStat) for SaveOriginalStat
    rds.o(i.PiSeekProc) refers to radio.o(i.BkupStatNum) for BkupStatNum
    rds.o(i.PiSeekProc) refers to radio.o(i.RadDpUpdate) for RadDpUpdate
    rds.o(i.PiSeekProc) refers to rds.o(.data) for rRdsSubSt
    rds.o(i.PiSeekProc) refers to radio.o(.data) for rRadMainSt
    rds.o(i.PtySeekProc) refers to tuner_elite.o(i.TunerSeekOff) for TunerSeekOff
    rds.o(i.PtySeekProc) refers to radio.o(i.SaveOriginalStat) for SaveOriginalStat
    rds.o(i.PtySeekProc) refers to radio.o(i.BkupStatNum) for BkupStatNum
    rds.o(i.PtySeekProc) refers to radio.o(i.InitFMPresetStat) for InitFMPresetStat
    rds.o(i.PtySeekProc) refers to radio.o(i.StartWrPll) for StartWrPll
    rds.o(i.PtySeekProc) refers to armuart.o(i.ReportRadioPreListinfo) for ReportRadioPreListinfo
    rds.o(i.PtySeekProc) refers to rds.o(.data) for rRdsSubSt
    rds.o(i.PtySeekProc) refers to radio.o(.data) for rRadFlg0
    rds.o(i.PtySeekProc) refers to core.o(.data) for radioinfoState1
    rds.o(i.PtySeekProc) refers to radio.o(.bss) for FMAsMem
    rds.o(i.RDSAfInit) refers to rds.o(i.RDSAfInitHeader) for RDSAfInitHeader
    rds.o(i.RDSAfInit) refers to rds.o(.data) for rRdsStorAfNb
    rds.o(i.RDSAfInit) refers to rds.o(.bss) for rRdsDafFmFreq
    rds.o(i.RDSAfInitHeader) refers to rds.o(.data) for rRdsAfCtrl1
    rds.o(i.RDSBlkSync) refers to rds.o(.data) for cRdsCnt
    rds.o(i.RDSCheckOrder) refers to rds.o(.data) for cRdsBitStk
    rds.o(i.RDSClearStk0) refers to rds.o(.data) for rRdsBlkStk
    rds.o(i.RDSClearStk1) refers to rds.o(.data) for rRdsBlkStk
    rds.o(i.RDSClearStk2) refers to rds.o(.data) for rRdsBlkStk
    rds.o(i.RDSDataClear) refers to armuart.o(i.ReportRdsPsinfo) for ReportRdsPsinfo
    rds.o(i.RDSDataClear) refers to armuart.o(i.ReportRdsRTinfo) for ReportRdsRTinfo
    rds.o(i.RDSDataClear) refers to rds.o(.data) for rRdsGroup
    rds.o(i.RDSDataClear) refers to rds.o(.bss) for rRdsRTNameAct
    rds.o(i.RDSDistOver01) refers to rds.o(i.RDSClearStk1) for RDSClearStk1
    rds.o(i.RDSDistOver01) refers to rds.o(.data) for cRdsBits
    rds.o(i.RDSDistOver02) refers to rds.o(i.RDSClearStk2) for RDSClearStk2
    rds.o(i.RDSDistOver02) refers to rds.o(.data) for cRdsBitStk
    rds.o(i.RDSExtAf) refers to rds.o(i.RDSExtAfMethodA) for RDSExtAfMethodA
    rds.o(i.RDSExtAf) refers to rds.o(i.RDSExtAfMethodB) for RDSExtAfMethodB
    rds.o(i.RDSExtAf) refers to rds.o(i.RDSExtAfHeader) for RDSExtAfHeader
    rds.o(i.RDSExtAf) refers to radio.o(.data) for rRadMainSt
    rds.o(i.RDSExtAf) refers to rds.o(.data) for rRdsFlag2
    rds.o(i.RDSExtAfHeader) refers to rds.o(i.RDSInsertAF) for RDSInsertAF
    rds.o(i.RDSExtAfHeader) refers to rds.o(.data) for rRdsAfCtrl1
    rds.o(i.RDSExtAfMethodA) refers to rds.o(i.RDSInsertAF) for RDSInsertAF
    rds.o(i.RDSExtAfMethodA) refers to rds.o(i.RDSAfInitHeader) for RDSAfInitHeader
    rds.o(i.RDSExtAfMethodA) refers to rds.o(.data) for rRdsCurSR32
    rds.o(i.RDSExtAfMethodA) refers to radio.o(.data) for cBand
    rds.o(i.RDSExtAfMethodA) refers to rds.o(.bss) for rRdsDafFmFreq
    rds.o(i.RDSExtAfMethodB) refers to rds.o(i.RDSInsertAF) for RDSInsertAF
    rds.o(i.RDSExtAfMethodB) refers to rds.o(i.RDSAfInitHeader) for RDSAfInitHeader
    rds.o(i.RDSExtAfMethodB) refers to rds.o(.data) for rRdsCurSR32
    rds.o(i.RDSExtAfMethodB) refers to radio.o(.data) for cBand
    rds.o(i.RDSExtAfMethodB) refers to rds.o(.bss) for rRdsDafFmFreq
    rds.o(i.RDSExtBkCRT) refers to sch_printf.o(i.Printf) for Printf
    rds.o(i.RDSExtBkCRT) refers to armuart.o(i.ReportRdsRTinfo) for ReportRdsRTinfo
    rds.o(i.RDSExtBkCRT) refers to radio.o(.data) for rRadMainSt
    rds.o(i.RDSExtBkCRT) refers to rdseon.o(.data) for rRdsEonFlag
    rds.o(i.RDSExtBkCRT) refers to rds.o(.data) for rRdsFlag2
    rds.o(i.RDSExtBkCRT) refers to rds.o(.bss) for rRdsRTNameAct
    rds.o(i.RDSExtBkDRT) refers to sch_printf.o(i.Printf) for Printf
    rds.o(i.RDSExtBkDRT) refers to armuart.o(i.ReportRdsRTinfo) for ReportRdsRTinfo
    rds.o(i.RDSExtBkDRT) refers to radio.o(.data) for rRadMainSt
    rds.o(i.RDSExtBkDRT) refers to rdseon.o(.data) for rRdsEonFlag
    rds.o(i.RDSExtBkDRT) refers to rds.o(.data) for rRdsFlag2
    rds.o(i.RDSExtBkDRT) refers to rds.o(.bss) for rRdsRTNameAct
    rds.o(i.RDSExtBlkB) refers to rds.o(i.RDSExtTp) for RDSExtTp
    rds.o(i.RDSExtBlkB) refers to rds.o(i.RDSExtPty) for RDSExtPty
    rds.o(i.RDSExtBlkB) refers to rds.o(i.RDSExtTa) for RDSExtTa
    rds.o(i.RDSExtBlkB) refers to rdseon.o(i.RDSExtEonTa) for RDSExtEonTa
    rds.o(i.RDSExtBlkB) refers to rds.o(.data) for rRdsFlag2
    rds.o(i.RDSExtBlkB) refers to rdseon.o(.data) for rRdsEonVar
    rds.o(i.RDSExtBlkC) refers to rds.o(i.RDSExtAf) for RDSExtAf
    rds.o(i.RDSExtBlkC) refers to rds.o(i.RDSExtBkCRT) for RDSExtBkCRT
    rds.o(i.RDSExtBlkC) refers to rds.o(.data) for rRdsGroup
    rds.o(i.RDSExtBlkC) refers to rdseon.o(.data) for rRdsEonData1
    rds.o(i.RDSExtBlkD) refers to rds.o(i.RDSExtPs) for RDSExtPs
    rds.o(i.RDSExtBlkD) refers to rds.o(i.RDSExtBkDRT) for RDSExtBkDRT
    rds.o(i.RDSExtBlkD) refers to rds.o(i.RDSExtCT) for RDSExtCT
    rds.o(i.RDSExtBlkD) refers to rdseon.o(i.RDSExtEonAf) for RDSExtEonAf
    rds.o(i.RDSExtBlkD) refers to rdseon.o(i.RDSExtEonTaPi) for RDSExtEonTaPi
    rds.o(i.RDSExtBlkD) refers to rds.o(.data) for rRdsGroup
    rds.o(i.RDSExtCT) refers to sch_printf.o(i.Printf) for Printf
    rds.o(i.RDSExtCT) refers to armuart.o(i.ReportDate) for ReportDate
    rds.o(i.RDSExtCT) refers to rds.o(.data) for rRdsUTCHour
    rds.o(i.RDSExtCT) refers to drive.o(.bss) for armtime
    rds.o(i.RDSExtPi) refers to rds.o(.data) for rRdsPiCode
    rds.o(i.RDSExtPi) refers to radio.o(.data) for rRadMainSt
    rds.o(i.RDSExtPi) refers to rds.o(.bss) for RDSPreMem
    rds.o(i.RDSExtPs) refers to armuart.o(i.ReportRdsPsinfo) for ReportRdsPsinfo
    rds.o(i.RDSExtPs) refers to sch_printf.o(i.Printf) for Printf
    rds.o(i.RDSExtPs) refers to radio.o(.data) for rRadMainSt
    rds.o(i.RDSExtPs) refers to rdseon.o(.data) for rRdsEonFlag
    rds.o(i.RDSExtPs) refers to rds.o(.data) for rRdsFlag2
    rds.o(i.RDSExtPs) refers to rds.o(.bss) for RDSPreMem
    rds.o(i.RDSExtPty) refers to armuart.o(i.ReportRdsPsinfo) for ReportRdsPsinfo
    rds.o(i.RDSExtPty) refers to rds.o(.data) for rRdsFlag2
    rds.o(i.RDSExtPty) refers to rdseon.o(.data) for rRdsEonFlag
    rds.o(i.RDSExtTa) refers to rds.o(.data) for rRdsCurSR32
    rds.o(i.RDSExtTa) refers to radio.o(.data) for rRadMainSt
    rds.o(i.RDSExtTp) refers to rds.o(.data) for rRdsFlag2
    rds.o(i.RDSGbsSoftware) refers to rds.o(i.RDSSyndCalc) for RDSSyndCalc
    rds.o(i.RDSGbsSoftware) refers to rds.o(.data) for rRdsSyncSt
    rds.o(i.RDSGbsSoftware) refers to rds.o(.constdata) for RDSSyndTable
    rds.o(i.RDSGbsSynchro) refers to rds.o(i.RDSClearStk0) for RDSClearStk0
    rds.o(i.RDSGbsSynchro) refers to rds.o(i.RDSSyncStateBit) for RDSSyncStateBit
    rds.o(i.RDSGbsSynchro) refers to rds.o(i.RDSSyncStateBlk) for RDSSyncStateBlk
    rds.o(i.RDSGbsSynchro) refers to rds.o(.data) for cRdsCnt
    rds.o(i.RDSInsertAF) refers to rds.o(.data) for rRdsAFStatBak
    rds.o(i.RDSInsertAF) refers to rds.o(.bss) for rRdsDafFmFreq
    rds.o(i.RDSInsertAF) refers to radio.o(.data) for cBand
    rds.o(i.RDSStart) refers to rds.o(.data) for rRdsSyncSt
    rds.o(i.RDSStop) refers to rds.o(.data) for rRdsSyncSt
    rds.o(i.RDSSyncStateBit) refers to rds.o(i.RDSDistOver01) for RDSDistOver01
    rds.o(i.RDSSyncStateBit) refers to rds.o(i.RDS_StkPush) for RDS_StkPush
    rds.o(i.RDSSyncStateBit) refers to rds.o(i.RDSCheckOrder) for RDSCheckOrder
    rds.o(i.RDSSyncStateBit) refers to rds.o(i.RDSBlkSync) for RDSBlkSync
    rds.o(i.RDSSyncStateBit) refers to rds.o(i.RDSDistOver02) for RDSDistOver02
    rds.o(i.RDSSyncStateBit) refers to rds.o(.data) for cRdsBits
    rds.o(i.RDSSyncStateBlk) refers to rds.o(i.RDS_StkPush) for RDS_StkPush
    rds.o(i.RDSSyncStateBlk) refers to rds.o(i.RDS_BlkOk) for RDS_BlkOk
    rds.o(i.RDSSyncStateBlk) refers to rds.o(i.RDS_BlkFail) for RDS_BlkFail
    rds.o(i.RDSSyncStateBlk) refers to rds.o(.data) for rRdsGbsStat
    rds.o(i.RDSSyndCalc) refers to rds.o(.data) for rRdsSR
    rds.o(i.RDS_BlkFail) refers to rds.o(.data) for rRdsSyncLevel
    rds.o(i.RDS_BlkOk) refers to rds.o(.data) for rRdsSyncLevel
    rds.o(i.RDS_StkPush) refers to rds.o(.data) for rRdsSyncSt
    rds.o(i.RdsDataDecode) refers to tuner_elite.o(i.RDSFetchBlockData) for RDSFetchBlockData
    rds.o(i.RdsDataDecode) refers to detection.o(.data) for accexistFlag
    rds.o(i.RdsDataDecode) refers to radio.o(.data) for rRadFlg0
    rds.o(i.RdsDataDecode) refers to rds.o(.data) for rRdsAfSt
    rds.o(i.RdsExtrProc) refers to rds.o(i.RdsDataDecode) for RdsDataDecode
    rds.o(i.RdsExtrProc) refers to core.o(i.__ARM_common_switch8) for __ARM_common_switch8
    rds.o(i.RdsExtrProc) refers to rds.o(i.RDSExtPi) for RDSExtPi
    rds.o(i.RdsExtrProc) refers to rds.o(i.RDSExtBlkB) for RDSExtBlkB
    rds.o(i.RdsExtrProc) refers to rds.o(i.RDSExtBlkC) for RDSExtBlkC
    rds.o(i.RdsExtrProc) refers to rds.o(i.RDSExtBlkD) for RDSExtBlkD
    rds.o(i.RdsExtrProc) refers to radio.o(.data) for rRadFlg1
    rds.o(i.RdsExtrProc) refers to rds.o(.data) for rRdsFlag1
    rds.o(i.RdsExtrProc) refers to tuner_elite.o(.bss) for RDS
    rds.o(i.RestoreAfSt) refers to radio.o(i.RestoreStatNum) for RestoreStatNum
    rds.o(i.RestoreAfSt) refers to tuner_elite.o(i.Radio7786SetFreq) for Radio7786SetFreq
    rds.o(i.RestoreAfSt) refers to rds.o(.data) for rRdsAfSt
    rds.o(i.RestoreAfSt) refers to tuner_elite.o(.bss) for Radio_7786
    rds.o(i.TpSeekProc) refers to radio.o(i.RestoreStatNum) for RestoreStatNum
    rds.o(i.TpSeekProc) refers to radio.o(i.RadSetToDl500ms) for RadSetToDl500ms
    rds.o(i.TpSeekProc) refers to rds.o(.data) for rRdsSubSt
    rds.o(i.TpSeekProc) refers to radio.o(.data) for rRadMainSt
    rds.o(i.TrafficProc) refers to radio.o(i.RadDpUpdate) for RadDpUpdate
    rds.o(i.TrafficProc) refers to armuart.o(i.ReportRdsPsinfo) for ReportRdsPsinfo
    rds.o(i.TrafficProc) refers to armuart.o(i.ReportRadioBaseInfo) for ReportRadioBaseInfo
    rds.o(i.TrafficProc) refers to rds.o(.data) for rRdsSubSt
    rds.o(i.TrafficProc) refers to rdseon.o(.data) for rRdsEonFlag
    rds.o(i.TrafficProc) refers to core.o(.data) for rdsinfoState3
    rds.o(i.TrafficProc) refers to radio.o(.data) for rRadFlg3
    rds.o(i.TrafficProc) refers to irda.o(.data) for RmtFlag
    rds.o(i.TrafficProc) refers to key.o(.data) for rKeyResult
    rds.o(i.TrafficProc) refers to armuart.o(.data) for armsourceState
    rdsapp.o(i.ClrRDSParms) refers to rds.o(.data) for rRdsAfSt
    rdsapp.o(i.RDSFmFreqChange) refers to rds.o(i.RDSStop) for RDSStop
    rdsapp.o(i.RDSFmFreqChange) refers to rds.o(i.RDSAfInit) for RDSAfInit
    rdsapp.o(i.RDSFmFreqChange) refers to rds.o(i.RDSDataClear) for RDSDataClear
    rdsapp.o(i.RDSFmFreqChange) refers to rdsapp.o(i.RDSTimerInit) for RDSTimerInit
    rdsapp.o(i.RDSFmFreqChange) refers to rds.o(i.RDSStart) for RDSStart
    rdsapp.o(i.RDSFmFreqChange) refers to rdseon.o(i.RDSEonInit) for RDSEonInit
    rdsapp.o(i.RDSFmFreqChange) refers to radio.o(i.RadDpUpdate) for RadDpUpdate
    rdsapp.o(i.RDSFmFreqChange) refers to radio.o(.data) for rRadFlg3
    rdsapp.o(i.RDSFmFreqChange) refers to rds.o(.data) for rRdsPiCode
    rdsapp.o(i.RDSFmFreqChange) refers to irda.o(.data) for RmtFlag
    rdsapp.o(i.RDSFmFreqChange) refers to key.o(.data) for rKeyResult
    rdsapp.o(i.RDSFmFreqChange) refers to rds.o(.bss) for rRdsRTNameAct
    rdsapp.o(i.RDSInit) refers to rdsapp.o(i.ClrRDSParms) for ClrRDSParms
    rdsapp.o(i.RDSInit) refers to rds.o(i.RDSAfInit) for RDSAfInit
    rdsapp.o(i.RDSInit) refers to rdseon.o(i.RDSEonInit) for RDSEonInit
    rdsapp.o(i.RDSInit) refers to rds.o(i.RDSDataClear) for RDSDataClear
    rdsapp.o(i.RDSInit) refers to rds.o(.data) for rRdsFlag3
    rdsapp.o(i.RDSInit) refers to radio.o(.data) for rRadFlg3
    rdsapp.o(i.RDSTimerInit) refers to rds.o(.data) for RdsPty_X128ms
    rdsapp.o(i.RdsKeyAnaly) refers to rds.o(i.RestoreAfSt) for RestoreAfSt
    rdsapp.o(i.RdsKeyAnaly) refers to radio.o(i.RestoreStatNum) for RestoreStatNum
    rdsapp.o(i.RdsKeyAnaly) refers to radio.o(i.RadSetToDl500ms) for RadSetToDl500ms
    rdsapp.o(i.RdsKeyAnaly) refers to radio.o(i.BkupStatNum) for BkupStatNum
    rdsapp.o(i.RdsKeyAnaly) refers to armuart.o(i.ReportRadioBaseInfo) for ReportRadioBaseInfo
    rdsapp.o(i.RdsKeyAnaly) refers to radio.o(i.StartWrPll) for StartWrPll
    rdsapp.o(i.RdsKeyAnaly) refers to sch_printf.o(i.Printf) for Printf
    rdsapp.o(i.RdsKeyAnaly) refers to armuart.o(i.ReportRdsPsinfo) for ReportRdsPsinfo
    rdsapp.o(i.RdsKeyAnaly) refers to radio.o(i.RadDpUpdate) for RadDpUpdate
    rdsapp.o(i.RdsKeyAnaly) refers to radio.o(i.SaveOriginalStat) for SaveOriginalStat
    rdsapp.o(i.RdsKeyAnaly) refers to radio.o(i.SaveCurBandMsg) for SaveCurBandMsg
    rdsapp.o(i.RdsKeyAnaly) refers to rdsapp.o(i.RDSFmFreqChange) for RDSFmFreqChange
    rdsapp.o(i.RdsKeyAnaly) refers to radio.o(i.ReadBandMsg) for ReadBandMsg
    rdsapp.o(i.RdsKeyAnaly) refers to irda.o(.data) for RmtFlag
    rdsapp.o(i.RdsKeyAnaly) refers to radio.o(.data) for rRadFlg3
    rdsapp.o(i.RdsKeyAnaly) refers to core.o(.data) for rAreaSt
    rdsapp.o(i.RdsKeyAnaly) refers to key.o(.data) for rKeyResult
    rdsapp.o(i.RdsKeyAnaly) refers to rds.o(.data) for rRdsFlag
    rdsapp.o(i.RdsKeyAnaly) refers to armuart.o(.data) for armsourceState
    rdsapp.o(i.RdsProc) refers to rds.o(i.AfDetProc) for AfDetProc
    rdsapp.o(i.RdsProc) refers to rds.o(i.RdsExtrProc) for RdsExtrProc
    rdsapp.o(i.RdsProc) refers to rdsapp.o(i.RdsKeyAnaly) for RdsKeyAnaly
    rdsapp.o(i.RdsProc) refers to rdseon.o(i.EonTADetProc) for EonTADetProc
    rdsapp.o(i.RdsProc) refers to core.o(i.__ARM_common_switch8) for __ARM_common_switch8
    rdsapp.o(i.RdsProc) refers to rds.o(i.MeasureAfList) for MeasureAfList
    rdsapp.o(i.RdsProc) refers to radio.o(i.SaveOriginalStat) for SaveOriginalStat
    rdsapp.o(i.RdsProc) refers to radio.o(i.BkupStatNum) for BkupStatNum
    rdsapp.o(i.RdsProc) refers to rds.o(i.RestoreAfSt) for RestoreAfSt
    rdsapp.o(i.RdsProc) refers to rds.o(i.PtySeekProc) for PtySeekProc
    rdsapp.o(i.RdsProc) refers to rds.o(i.TpSeekProc) for TpSeekProc
    rdsapp.o(i.RdsProc) refers to rds.o(i.PiSeekProc) for PiSeekProc
    rdsapp.o(i.RdsProc) refers to rds.o(i.TrafficProc) for TrafficProc
    rdsapp.o(i.RdsProc) refers to rdseon.o(.data) for rRdsEonFlag
    rdsapp.o(i.RdsProc) refers to radio.o(.data) for rRadFlg0
    rdsapp.o(i.RdsProc) refers to core.o(.data) for rAreaSt
    rdsapp.o(i.RdsProc) refers to rds.o(.data) for rRdsMainSt
    rdsapp.o(i.RdsProc) refers to armuart.o(.data) for armsourceState
    rdsapp.o(i.ReadRdsPreMem) refers to radio.o(.data) for rRadFlg3
    rdsapp.o(i.ReadRdsPreMem) refers to rds.o(.bss) for RDSPreMem
    rdsapp.o(i.ReadRdsPreMem) refers to rds.o(.data) for Rds_SwafFixPi
    rdsapp.o(i.RestoreRdsSt) refers to radio.o(i.RestoreStatNum) for RestoreStatNum
    rdsapp.o(i.RestoreRdsSt) refers to rds.o(.data) for rRdsMainSt
    rdsapp.o(i.WriteRdsPreMem) refers to radio.o(.data) for rRadFlg3
    rdsapp.o(i.WriteRdsPreMem) refers to rds.o(.data) for Rds_SwafFixPi
    rdsapp.o(i.WriteRdsPreMem) refers to rds.o(.bss) for RDSPreMem
    rdseon.o(i.EonTADetProc) refers to core.o(i.__ARM_common_switch8) for __ARM_common_switch8
    rdseon.o(i.EonTADetProc) refers to sch_printf.o(i.Printf) for Printf
    rdseon.o(i.EonTADetProc) refers to radio.o(i.GetRadFreOctData) for GetRadFreOctData
    rdseon.o(i.EonTADetProc) refers to tuner_elite.o(i.Radio7786SetFreq) for Radio7786SetFreq
    rdseon.o(i.EonTADetProc) refers to rds.o(i.RDSDataClear) for RDSDataClear
    rdseon.o(i.EonTADetProc) refers to rds.o(i.RDSStart) for RDSStart
    rdseon.o(i.EonTADetProc) refers to rdsapp.o(i.RDSTimerInit) for RDSTimerInit
    rdseon.o(i.EonTADetProc) refers to rdseon.o(i.RDSEonTaSwitchBack) for RDSEonTaSwitchBack
    rdseon.o(i.EonTADetProc) refers to rdsapp.o(i.RDSFmFreqChange) for RDSFmFreqChange
    rdseon.o(i.EonTADetProc) refers to rdseon.o(.data) for rRdsEonFlag
    rdseon.o(i.EonTADetProc) refers to rdseon.o(.bss) for RDSEonBlkData
    rdseon.o(i.EonTADetProc) refers to core.o(.data) for rAreaSt
    rdseon.o(i.EonTADetProc) refers to radio.o(.data) for cBand
    rdseon.o(i.EonTADetProc) refers to tuner_elite.o(.bss) for Radio_7786
    rdseon.o(i.EonTADetProc) refers to rds.o(.data) for rRdsPiCode
    rdseon.o(i.RDSEonAfInit) refers to rdseon.o(.bss) for RDSEonBlkData
    rdseon.o(i.RDSEonAfInsert) refers to rdseon.o(.bss) for RDSEonBlkData
    rdseon.o(i.RDSEonElntSearch) refers to sch_printf.o(i.Printf) for Printf
    rdseon.o(i.RDSEonElntSearch) refers to rdseon.o(.bss) for RDSEonBlkData
    rdseon.o(i.RDSEonElntSearch) refers to rds.o(.data) for rRdsCurSR32
    rdseon.o(i.RDSEonElntSearch) refers to rdseon.o(.data) for rRdsEonTaIdx
    rdseon.o(i.RDSEonInit) refers to sch_printf.o(i.Printf) for Printf
    rdseon.o(i.RDSEonInit) refers to rdseon.o(.data) for rRdsEonIdx
    rdseon.o(i.RDSEonInit) refers to rds.o(.data) for rRdsFlag1
    rdseon.o(i.RDSEonInit) refers to rdseon.o(.bss) for RDSEonBlkData
    rdseon.o(i.RDSEonPiAfInsert) refers to rdseon.o(i.RDSEonAfInsert) for RDSEonAfInsert
    rdseon.o(i.RDSEonPiAfInsert) refers to rdseon.o(i.RDSEonAfInit) for RDSEonAfInit
    rdseon.o(i.RDSEonPiAfInsert) refers to sch_printf.o(i.Printf) for Printf
    rdseon.o(i.RDSEonPiAfInsert) refers to rdseon.o(.data) for rRdsEonFlag
    rdseon.o(i.RDSEonPiAfInsert) refers to rdseon.o(.bss) for RDSEonBlkData
    rdseon.o(i.RDSEonPiAfInsert) refers to rds.o(.data) for rRdsCurSR32
    rdseon.o(i.RDSEonTaSwitchBack) refers to radio.o(i.RestoreStatNum1) for RestoreStatNum1
    rdseon.o(i.RDSEonTaSwitchBack) refers to tuner_elite.o(i.Radio7786SetFreq) for Radio7786SetFreq
    rdseon.o(i.RDSEonTaSwitchBack) refers to tuner_elite.o(.bss) for Radio_7786
    rdseon.o(i.RDSEonTaSwitchBack) refers to rdseon.o(.data) for rRdsEonTaSt
    rdseon.o(i.RDSExtEonAf) refers to core.o(i.__ARM_common_switch8) for __ARM_common_switch8
    rdseon.o(i.RDSExtEonAf) refers to rdseon.o(i.RDSEonPiAfInsert) for RDSEonPiAfInsert
    rdseon.o(i.RDSExtEonAf) refers to rdseon.o(.data) for rRdsEonVar
    rdseon.o(i.RDSExtEonTa) refers to sch_printf.o(i.Printf) for Printf
    rdseon.o(i.RDSExtEonTa) refers to rds.o(.data) for rRdsCurSR32
    rdseon.o(i.RDSExtEonTa) refers to rdseon.o(.data) for rRdsEonTaSt
    rdseon.o(i.RDSExtEonTaPi) refers to sch_printf.o(i.Printf) for Printf
    rdseon.o(i.RDSExtEonTaPi) refers to rdseon.o(i.RDSEonElntSearch) for RDSEonElntSearch
    rdseon.o(i.RDSExtEonTaPi) refers to radio.o(i.BkupStatNum) for BkupStatNum
    rdseon.o(i.RDSExtEonTaPi) refers to rdseon.o(.data) for rRdsEonFlag
    rdseon.o(i.RDSExtEonTaPi) refers to rds.o(.data) for rRdsCurSR32
    tuner_elite.o(i.AFCheckInit) refers to tuner_elite.o(i.RDSDataInitPlus) for RDSDataInitPlus
    tuner_elite.o(i.AFCheckInit) refers to tuner_elite.o(.bss) for RDS
    tuner_elite.o(i.AFCheckInit) refers to rds.o(.data) for rRdsFlag5
    tuner_elite.o(i.Disable_RDS_Int) refers to tuner_elite.o(i.Elite_CmdWriteMem) for Elite_CmdWriteMem
    tuner_elite.o(i.Disable_RDS_Int) refers to stm32f0xx_exti.o(i.EXTI_StructInit) for EXTI_StructInit
    tuner_elite.o(i.Disable_RDS_Int) refers to stm32f0xx_exti.o(i.EXTI_Init) for EXTI_Init
    tuner_elite.o(i.Disable_RDS_Int) refers to stm32f0xx_misc.o(i.NVIC_Init) for NVIC_Init
    tuner_elite.o(i.Disable_RDS_Int) refers to stm32f0xx_exti.o(i.EXTI_ClearITPendingBit) for EXTI_ClearITPendingBit
    tuner_elite.o(i.Elite_BootcodeDownload) refers to tuner_elite.o(i.I2C3Start) for I2C3Start
    tuner_elite.o(i.Elite_BootcodeDownload) refers to tuner_elite.o(i.I2C3Out8Bit) for I2C3Out8Bit
    tuner_elite.o(i.Elite_BootcodeDownload) refers to tuner_elite.o(i.I2C3Stop) for I2C3Stop
    tuner_elite.o(i.Elite_BootcodeDownload) refers to tuner_elite.o(.constdata) for I2CBootData
    tuner_elite.o(i.Elite_CmdAFCheck) refers to tuner_elite.o(i.Elite_CmdWriteRead) for Elite_CmdWriteRead
    tuner_elite.o(i.Elite_CmdAFCheck) refers to tuner_elite.o(.bss) for Radio_7786
    tuner_elite.o(i.Elite_CmdAFEnd) refers to tuner_elite.o(i.Elite_CmdWriteRead) for Elite_CmdWriteRead
    tuner_elite.o(i.Elite_CmdAFEnd) refers to tuner_elite.o(.bss) for Radio_7786
    tuner_elite.o(i.Elite_CmdAFStart) refers to tuner_elite.o(i.Elite_CmdWriteRead) for Elite_CmdWriteRead
    tuner_elite.o(i.Elite_CmdAFStart) refers to tuner_elite.o(.bss) for Radio_7786
    tuner_elite.o(i.Elite_CmdChangeAFFreq) refers to tuner_elite.o(i.Elite_CmdWriteRead) for Elite_CmdWriteRead
    tuner_elite.o(i.Elite_CmdChangeAFFreq) refers to tuner_elite.o(.bss) for Radio_7786
    tuner_elite.o(i.Elite_CmdChangeBand) refers to tuner_elite.o(i.Elite_CmdWriteRead) for Elite_CmdWriteRead
    tuner_elite.o(i.Elite_CmdChangeBand) refers to bsp.o(i.SysDelay) for SysDelay
    tuner_elite.o(i.Elite_CmdChangeBand) refers to tuner_elite.o(i.Elite_CmdReadTDSR) for Elite_CmdReadTDSR
    tuner_elite.o(i.Elite_CmdChangeBand) refers to radio.o(i.RadioInit) for RadioInit
    tuner_elite.o(i.Elite_CmdChangeBand) refers to tuner_elite.o(.bss) for Radio_7786
    tuner_elite.o(i.Elite_CmdChangeBand) refers to radio.o(.data) for Rad_Err_X4ms
    tuner_elite.o(i.Elite_CmdChangeFreq) refers to tuner_elite.o(i.Elite_CmdWriteRead) for Elite_CmdWriteRead
    tuner_elite.o(i.Elite_CmdChangeFreq) refers to bsp.o(i.SysDelay) for SysDelay
    tuner_elite.o(i.Elite_CmdChangeFreq) refers to tuner_elite.o(i.Elite_CmdReadTDSR) for Elite_CmdReadTDSR
    tuner_elite.o(i.Elite_CmdChangeFreq) refers to radio.o(i.RadioInit) for RadioInit
    tuner_elite.o(i.Elite_CmdChangeFreq) refers to tuner_elite.o(.bss) for Radio_7786
    tuner_elite.o(i.Elite_CmdChangeFreq) refers to radio.o(.data) for Rad_Err_X4ms
    tuner_elite.o(i.Elite_CmdMuSICA) refers to tuner_elite.o(i.Elite_CmdWriteRead) for Elite_CmdWriteRead
    tuner_elite.o(i.Elite_CmdMuSICA) refers to tuner_elite.o(.bss) for Radio_7786
    tuner_elite.o(i.Elite_CmdReadAFMeasure) refers to tuner_elite.o(i.Elite_CmdWriteRead) for Elite_CmdWriteRead
    tuner_elite.o(i.Elite_CmdReadAFQual) refers to tuner_elite.o(i.Elite_CmdWriteRead) for Elite_CmdWriteRead
    tuner_elite.o(i.Elite_CmdReadAFQual) refers to tuner_elite.o(.bss) for Radio_7786
    tuner_elite.o(i.Elite_CmdReadMem) refers to tuner_elite.o(i.Elite_CmdWriteRead) for Elite_CmdWriteRead
    tuner_elite.o(i.Elite_CmdReadMem) refers to tuner_elite.o(.bss) for Radio_7786
    tuner_elite.o(i.Elite_CmdReadSeekStatus) refers to tuner_elite.o(i.Elite_CmdWriteRead) for Elite_CmdWriteRead
    tuner_elite.o(i.Elite_CmdReadSeekStatus) refers to aeabi_sdiv.o(.text) for __aeabi_uidivmod
    tuner_elite.o(i.Elite_CmdReadSeekStatus) refers to dflti.o(.text) for __aeabi_ui2d
    tuner_elite.o(i.Elite_CmdReadSeekStatus) refers to dmul.o(.text) for __aeabi_dmul
    tuner_elite.o(i.Elite_CmdReadSeekStatus) refers to dfixui.o(.text) for __aeabi_d2uiz
    tuner_elite.o(i.Elite_CmdReadSeekStatus) refers to daddsub.o(.text) for __aeabi_dsub
    tuner_elite.o(i.Elite_CmdReadSeekStatus) refers to ddiv.o(.text) for __aeabi_ddiv
    tuner_elite.o(i.Elite_CmdReadSeekStatus) refers to tuner_elite.o(i.RDSDataInit) for RDSDataInit
    tuner_elite.o(i.Elite_CmdReadSeekStatus) refers to tuner_elite.o(.bss) for Radio_7786
    tuner_elite.o(i.Elite_CmdReadSeekStatus) refers to radio.o(.data) for rRadFlg0
    tuner_elite.o(i.Elite_CmdReadSeekStatus) refers to rds.o(.data) for rRdsMainSt
    tuner_elite.o(i.Elite_CmdReadTDSR) refers to tuner_elite.o(i.Elite_CmdWriteRead) for Elite_CmdWriteRead
    tuner_elite.o(i.Elite_CmdReadTDSR) refers to tuner_elite.o(.bss) for Radio_7786
    tuner_elite.o(i.Elite_CmdReadTunerStatus) refers to tuner_elite.o(i.Elite_CmdWriteRead) for Elite_CmdWriteRead
    tuner_elite.o(i.Elite_CmdReadTunerStatus) refers to tuner_elite.o(.bss) for Radio_7786
    tuner_elite.o(i.Elite_CmdSeekEnd) refers to tuner_elite.o(i.Elite_CmdWriteRead) for Elite_CmdWriteRead
    tuner_elite.o(i.Elite_CmdSeekEnd) refers to tuner_elite.o(.bss) for Radio_7786
    tuner_elite.o(i.Elite_CmdSetFEReg) refers to tuner_elite.o(i.Elite_CmdWriteRead) for Elite_CmdWriteRead
    tuner_elite.o(i.Elite_CmdSetFEReg) refers to tuner_elite.o(.bss) for Radio_7786
    tuner_elite.o(i.Elite_CmdSetFEReg) refers to tuner_elite.o(.constdata) for FMFEReg
    tuner_elite.o(i.Elite_CmdSetSeekTH) refers to tuner_elite.o(i.Elite_CmdWriteRead) for Elite_CmdWriteRead
    tuner_elite.o(i.Elite_CmdSetSeekTH) refers to tuner_elite.o(.bss) for Radio_7786
    tuner_elite.o(i.Elite_CmdStartAutoSeek) refers to tuner_elite.o(i.Elite_CmdWriteRead) for Elite_CmdWriteRead
    tuner_elite.o(i.Elite_CmdStartAutoSeek) refers to tuner_elite.o(.bss) for Radio_7786
    tuner_elite.o(i.Elite_CmdStartManualSeek) refers to tuner_elite.o(i.Elite_CmdWriteRead) for Elite_CmdWriteRead
    tuner_elite.o(i.Elite_CmdStartManualSeek) refers to tuner_elite.o(.bss) for Radio_7786
    tuner_elite.o(i.Elite_CmdStartup) refers to tuner_elite.o(i.Elite_CmdWriteRead) for Elite_CmdWriteRead
    tuner_elite.o(i.Elite_CmdStartup) refers to bsp.o(i.SysDelay) for SysDelay
    tuner_elite.o(i.Elite_CmdStartup) refers to tuner_elite.o(i.Elite_CmdReadTDSR) for Elite_CmdReadTDSR
    tuner_elite.o(i.Elite_CmdStartup) refers to radio.o(i.RadioInit) for RadioInit
    tuner_elite.o(i.Elite_CmdStartup) refers to tuner_elite.o(.bss) for Radio_7786
    tuner_elite.o(i.Elite_CmdStartup) refers to radio.o(.data) for Rad_Err_X4ms
    tuner_elite.o(i.Elite_CmdWriteBeCoeff) refers to tuner_elite.o(i.Elite_CmdWriteRead) for Elite_CmdWriteRead
    tuner_elite.o(i.Elite_CmdWriteBeCoeff) refers to tuner_elite.o(.bss) for Radio_7786
    tuner_elite.o(i.Elite_CmdWriteMem) refers to tuner_elite.o(i.Elite_CmdWriteRead) for Elite_CmdWriteRead
    tuner_elite.o(i.Elite_CmdWriteMem) refers to tuner_elite.o(.bss) for Radio_7786
    tuner_elite.o(i.Elite_CmdWriteRead) refers to tuner_elite.o(i.Elite_DirectWrite) for Elite_DirectWrite
    tuner_elite.o(i.Elite_CmdWriteRead) refers to tuner_elite.o(i.Elite_DirectRead) for Elite_DirectRead
    tuner_elite.o(i.Elite_CmdWriteRead) refers to tuner_elite.o(.bss) for Radio_7786
    tuner_elite.o(i.Elite_CmdWriteTunerSTStatus) refers to tuner_elite.o(i.Elite_CmdWriteRead) for Elite_CmdWriteRead
    tuner_elite.o(i.Elite_CmdWriteTunerSTStatus) refers to tuner_elite.o(.bss) for Radio_7786
    tuner_elite.o(i.Elite_CmdWriteTunerSTStatus) refers to radio.o(.data) for rRadFlg0
    tuner_elite.o(i.Elite_Cmd_IBOC_Blender) refers to tuner_elite.o(i.Elite_CmdWriteRead) for Elite_CmdWriteRead
    tuner_elite.o(i.Elite_Cmd_IBOC_Blender) refers to tuner_elite.o(.bss) for Radio_7786
    tuner_elite.o(i.Elite_DSPStuckCheck) refers to tuner_elite.o(i.Elite_CmdReadMem) for Elite_CmdReadMem
    tuner_elite.o(i.Elite_DSPStuckCheck) refers to tuner_elite.o(.bss) for Radio_7786
    tuner_elite.o(i.Elite_DirectRead) refers to tuner_elite.o(i.I2C3Start) for I2C3Start
    tuner_elite.o(i.Elite_DirectRead) refers to tuner_elite.o(i.I2C3Out8Bit) for I2C3Out8Bit
    tuner_elite.o(i.Elite_DirectRead) refers to tuner_elite.o(i.I2C3Stop) for I2C3Stop
    tuner_elite.o(i.Elite_DirectRead) refers to sch_common.o(i.SysWaitUs) for SysWaitUs
    tuner_elite.o(i.Elite_DirectRead) refers to tuner_elite.o(i.I2C3In8Bit) for I2C3In8Bit
    tuner_elite.o(i.Elite_DirectRead) refers to tuner_elite.o(i.I2C3Ack) for I2C3Ack
    tuner_elite.o(i.Elite_DirectRead) refers to tuner_elite.o(i.I2C3Ack2) for I2C3Ack2
    tuner_elite.o(i.Elite_DirectRead) refers to tuner_elite.o(.bss) for Radio_7786
    tuner_elite.o(i.Elite_DirectWrite) refers to tuner_elite.o(i.I2C3Start) for I2C3Start
    tuner_elite.o(i.Elite_DirectWrite) refers to tuner_elite.o(i.I2C3Out8Bit) for I2C3Out8Bit
    tuner_elite.o(i.Elite_DirectWrite) refers to tuner_elite.o(i.I2C3Stop) for I2C3Stop
    tuner_elite.o(i.Elite_DirectWrite) refers to tuner_elite.o(.bss) for Radio_7786
    tuner_elite.o(i.Elite_GetAverageQuality) refers to tuner_elite.o(i.Elite_CmdReadTunerStatus) for Elite_CmdReadTunerStatus
    tuner_elite.o(i.Elite_GetAverageQuality) refers to aeabi_sdiv.o(.text) for __aeabi_uidivmod
    tuner_elite.o(i.Elite_GetAverageQuality) refers to tuner_elite.o(.bss) for Radio_7786
    tuner_elite.o(i.Enable_RDS_Int) refers to tuner_elite.o(i.Elite_CmdWriteMem) for Elite_CmdWriteMem
    tuner_elite.o(i.Enable_RDS_Int) refers to stm32f0xx_rcc.o(i.RCC_APB2PeriphClockCmd) for RCC_APB2PeriphClockCmd
    tuner_elite.o(i.Enable_RDS_Int) refers to stm32f0xx_gpio.o(i.GPIO_Init) for GPIO_Init
    tuner_elite.o(i.Enable_RDS_Int) refers to stm32f0xx_exti.o(i.EXTI_StructInit) for EXTI_StructInit
    tuner_elite.o(i.Enable_RDS_Int) refers to stm32f0xx_exti.o(i.EXTI_Init) for EXTI_Init
    tuner_elite.o(i.Enable_RDS_Int) refers to stm32f0xx_misc.o(i.NVIC_Init) for NVIC_Init
    tuner_elite.o(i.Enable_RDS_Int) refers to stm32f0xx_exti.o(i.EXTI_ClearITPendingBit) for EXTI_ClearITPendingBit
    tuner_elite.o(i.HITPushToLast) refers to tuner_elite.o(i.RDSSetBlockData) for RDSSetBlockData
    tuner_elite.o(i.HITPushToLast) refers to tuner_elite.o(.bss) for RDS
    tuner_elite.o(i.HIT_CmdSetDiss) refers to tuner_elite.o(i.Elite_CmdWriteRead) for Elite_CmdWriteRead
    tuner_elite.o(i.HIT_CmdSetDiss) refers to tuner_elite.o(.bss) for Radio_7786
    tuner_elite.o(i.HIT_ForeceMono) refers to tuner_elite.o(i.Elite_CmdReadMem) for Elite_CmdReadMem
    tuner_elite.o(i.HIT_ForeceMono) refers to tuner_elite.o(i.Elite_CmdWriteMem) for Elite_CmdWriteMem
    tuner_elite.o(i.HIT_ForeceMono) refers to radio.o(.data) for rRadFlg0
    tuner_elite.o(i.HIT_ForeceMono) refers to tuner_elite.o(.bss) for Radio_7786
    tuner_elite.o(i.HIT_ForeceMono) refers to tuner_elite.o(.data) for pilotth
    tuner_elite.o(i.HIT_ForeceMute) refers to tuner_elite.o(i.Elite_CmdReadMem) for Elite_CmdReadMem
    tuner_elite.o(i.HIT_ForeceMute) refers to tuner_elite.o(i.Elite_CmdWriteMem) for Elite_CmdWriteMem
    tuner_elite.o(i.HIT_ForeceMute) refers to tuner_elite.o(.bss) for Radio_7786
    tuner_elite.o(i.HIT_ForeceMute) refers to tuner_elite.o(.data) for r7786mute
    tuner_elite.o(i.I2C3Ack) refers to bsp.o(i.SysDelay10us) for SysDelay10us
    tuner_elite.o(i.I2C3Ack2) refers to bsp.o(i.SysDelay10us) for SysDelay10us
    tuner_elite.o(i.I2C3Ack2) refers to sch_common.o(i.SysWaitUs) for SysWaitUs
    tuner_elite.o(i.I2C3In8Bit) refers to tuner_elite.o(i.I2C_delay) for I2C_delay
    tuner_elite.o(i.I2C3Out8Bit) refers to tuner_elite.o(i.I2C_delay) for I2C_delay
    tuner_elite.o(i.I2C3Start) refers to tuner_elite.o(i.I2C_delay) for I2C_delay
    tuner_elite.o(i.I2C3Stop) refers to tuner_elite.o(i.I2C_delay) for I2C_delay
    tuner_elite.o(i.RDSDataInit) refers to tuner_elite.o(i.RDSDataInitPlus) for RDSDataInitPlus
    tuner_elite.o(i.RDSDataInit) refers to tuner_elite.o(.bss) for RDS
    tuner_elite.o(i.RDSDataInit) refers to rds.o(.data) for rRdsFlag5
    tuner_elite.o(i.RDSDataInit) refers to radio.o(.data) for FM_RDS_PTY
    tuner_elite.o(i.RDSDataInitPlus) refers to tuner_elite.o(i.Elite_CmdWriteMem) for Elite_CmdWriteMem
    tuner_elite.o(i.RDSDataInitPlus) refers to tuner_elite.o(.bss) for RDS
    tuner_elite.o(i.RDSFetchBlockData) refers to tuner_elite.o(i.Elite_CmdReadMem) for Elite_CmdReadMem
    tuner_elite.o(i.RDSFetchBlockData) refers to tuner_elite.o(i.HITPushToLast) for HITPushToLast
    tuner_elite.o(i.RDSFetchBlockData) refers to rds.o(.data) for rRdsFlag4
    tuner_elite.o(i.RDSFetchBlockData) refers to tuner_elite.o(.bss) for Radio_7786
    tuner_elite.o(i.RDSFetchBlockData) refers to tuner_elite.o(i.RDSSetDataBlock) for RDSSetDataBlock
    tuner_elite.o(i.RDSFlagPINew) refers to rds.o(.data) for rRdsFlag6
    tuner_elite.o(i.RDSGetDataBlock) refers to rds.o(.data) for rRdsFlag1
    tuner_elite.o(i.RDSInt) refers to rds.o(.data) for rRdsFlag4
    tuner_elite.o(i.RDSSetBlockData) refers to rds.o(.data) for rRdsFlag5
    tuner_elite.o(i.RDSSetBlockData) refers to radio.o(.data) for FM_RDS_BleA
    tuner_elite.o(i.RDSSetDataBlock) refers to rds.o(.data) for rRdsFlag1
    tuner_elite.o(i.Radio7786SetFreq) refers to tuner_elite.o(i.TunerSetFreq) for TunerSetFreq
    tuner_elite.o(i.Tuner10msTimer) refers to tuner_elite.o(.data) for Tuner
    tuner_elite.o(i.Tuner10msTimer) refers to rds.o(.data) for RdsSync_X8ms
    tuner_elite.o(i.TunerChangeBand) refers to tuner_elite.o(i.Elite_CmdSetFEReg) for Elite_CmdSetFEReg
    tuner_elite.o(i.TunerChangeBand) refers to tuner_elite.o(i.Elite_CmdChangeBand) for Elite_CmdChangeBand
    tuner_elite.o(i.TunerChangeBand) refers to tuner_elite.o(i.Elite_CmdWriteBeCoeff) for Elite_CmdWriteBeCoeff
    tuner_elite.o(i.TunerChangeBand) refers to tuner_elite.o(i.Elite_CmdMuSICA) for Elite_CmdMuSICA
    tuner_elite.o(i.TunerChangeBand) refers to tuner_elite.o(i.Elite_CmdSetSeekTH) for Elite_CmdSetSeekTH
    tuner_elite.o(i.TunerChangeBand) refers to tuner_elite.o(.bss) for Radio_7786
    tuner_elite.o(i.TunerChangeBand) refers to tuner_elite.o(.constdata) for FMCustomWSPData
    tuner_elite.o(i.TunerReadAFSeekStatus) refers to tuner_elite.o(i.Elite_CmdReadAFQual) for Elite_CmdReadAFQual
    tuner_elite.o(i.TunerReadSeekStatus) refers to tuner_elite.o(i.Elite_CmdReadSeekStatus) for Elite_CmdReadSeekStatus
    tuner_elite.o(i.TunerSeekOff) refers to tuner_elite.o(i.Elite_CmdSeekEnd) for Elite_CmdSeekEnd
    tuner_elite.o(i.TunerSeekOn) refers to tuner_elite.o(i.Elite_CmdStartManualSeek) for Elite_CmdStartManualSeek
    tuner_elite.o(i.TunerSeekOn) refers to radio.o(.data) for Rad_Err_X4ms
    tuner_elite.o(i.TunerSetAFChangeFreq) refers to tuner_elite.o(i.Elite_CmdChangeAFFreq) for Elite_CmdChangeAFFreq
    tuner_elite.o(i.TunerSetAFChangeFreq) refers to tuner_elite.o(i.AFCheckInit) for AFCheckInit
    tuner_elite.o(i.TunerSetAFCheck) refers to tuner_elite.o(i.Elite_CmdAFCheck) for Elite_CmdAFCheck
    tuner_elite.o(i.TunerSetAFCheck) refers to tuner_elite.o(i.AFCheckInit) for AFCheckInit
    tuner_elite.o(i.TunerSetAFEnd) refers to tuner_elite.o(i.Elite_CmdAFEnd) for Elite_CmdAFEnd
    tuner_elite.o(i.TunerSetAFEnd) refers to tuner_elite.o(i.AFCheckInit) for AFCheckInit
    tuner_elite.o(i.TunerSetAFEnd) refers to radio.o(.data) for Rad_Err_X4ms
    tuner_elite.o(i.TunerSetAFStart) refers to tuner_elite.o(i.Elite_CmdAFStart) for Elite_CmdAFStart
    tuner_elite.o(i.TunerSetAFStart) refers to tuner_elite.o(i.AFCheckInit) for AFCheckInit
    tuner_elite.o(i.TunerSetFreq) refers to tuner_elite.o(i.Elite_CmdChangeFreq) for Elite_CmdChangeFreq
    tuner_elite.o(i.TunerSetFreq) refers to tuner_elite.o(i.RDSDataInit) for RDSDataInit
    tuner_elite.o(i.TunerSetFreq) refers to tuner_elite.o(.bss) for Radio_7786
    tuner_elite.o(i.TunerSetFreq) refers to tuner_elite.o(.data) for FmIdx
    tuner_elite.o(i.TunerStartupSeq) refers to core.o(i.__ARM_common_switch8) for __ARM_common_switch8
    tuner_elite.o(i.TunerStartupSeq) refers to tuner_elite.o(i.Elite_BootcodeDownload) for Elite_BootcodeDownload
    tuner_elite.o(i.TunerStartupSeq) refers to tuner_elite.o(i.Elite_DirectRead) for Elite_DirectRead
    tuner_elite.o(i.TunerStartupSeq) refers to tuner_elite.o(i.Elite_CmdStartup) for Elite_CmdStartup
    tuner_elite.o(i.TunerStartupSeq) refers to sch_printf.o(i.Printf) for Printf
    tuner_elite.o(i.TunerStartupSeq) refers to tuner_elite.o(i.TunerChangeBand) for TunerChangeBand
    tuner_elite.o(i.TunerStartupSeq) refers to tuner_elite.o(i.Enable_RDS_Int) for Enable_RDS_Int
    tuner_elite.o(i.TunerStartupSeq) refers to tuner_elite.o(i.Disable_RDS_Int) for Disable_RDS_Int
    tuner_elite.o(i.TunerStartupSeq) refers to radio.o(.data) for rRadSubSt
    tuner_elite.o(i.TunerStartupSeq) refers to tuner_elite.o(.data) for Tuner
    tuner_elite.o(i.TunerStartupSeq) refers to tuner_elite.o(.bss) for Radio_7786
    tuner_elite.o(i.TunerStatusUpdate) refers to tuner_elite.o(i.Elite_GetAverageQuality) for Elite_GetAverageQuality
    rt_memcpy.o(.text) refers to rt_memcpy.o(.emb_text) for __aeabi_memcpy4
    __main.o(!!!main) refers to __rtentry.o(.ARM.Collect$$rtentry$$00000000) for __rt_entry
    d2f.o(.text) refers (Special) to usenofp.o(x$fpl$usenofp) for __I$use$fp
    daddsub.o(.text) refers (Special) to usenofp.o(x$fpl$usenofp) for __I$use$fp
    ddiv.o(.text) refers (Special) to usenofp.o(x$fpl$usenofp) for __I$use$fp
    ddiv.o(.text) refers to ddiv.o(.constdata) for .constdata
    ddiv.o(.constdata) refers (Special) to usenofp.o(x$fpl$usenofp) for __I$use$fp
    dfixui.o(.text) refers (Special) to usenofp.o(x$fpl$usenofp) for __I$use$fp
    dflti.o(.text) refers (Special) to usenofp.o(x$fpl$usenofp) for __I$use$fp
    dmul.o(.text) refers (Special) to usenofp.o(x$fpl$usenofp) for __I$use$fp
    drlef.o(x$fpl$drleqf) refers (Special) to usenofp.o(x$fpl$usenofp) for __I$use$fp
    drlef.o(x$fpl$drleqf) refers to dcmpin.o(.text) for __fpl_dcmp_InfNaN
    f2d.o(.text) refers (Special) to usenofp.o(x$fpl$usenofp) for __I$use$fp
    ffixui.o(.text) refers (Special) to usenofp.o(x$fpl$usenofp) for __I$use$fp
    __rtentry.o(.ARM.Collect$$rtentry$$00000000) refers (Special) to __rtentry2.o(.ARM.Collect$$rtentry$$0000000A) for __rt_entry_li
    __rtentry.o(.ARM.Collect$$rtentry$$00000000) refers (Special) to __rtentry2.o(.ARM.Collect$$rtentry$$0000000D) for __rt_entry_main
    __rtentry.o(.ARM.Collect$$rtentry$$00000000) refers (Special) to __rtentry2.o(.ARM.Collect$$rtentry$$0000000C) for __rt_entry_postli_1
    __rtentry.o(.ARM.Collect$$rtentry$$00000000) refers (Special) to __rtentry2.o(.ARM.Collect$$rtentry$$00000009) for __rt_entry_postsh_1
    __rtentry.o(.ARM.Collect$$rtentry$$00000000) refers (Special) to __rtentry2.o(.ARM.Collect$$rtentry$$00000002) for __rt_entry_presh_1
    __rtentry.o(.ARM.Collect$$rtentry$$00000000) refers (Special) to __rtentry4.o(.ARM.Collect$$rtentry$$00000004) for __rt_entry_sh
    aeabi_idiv0_sigfpe.o(.text) refers to rt_div0.o(.text) for __rt_div0
    dcmpin.o(.text) refers (Special) to usenofp.o(x$fpl$usenofp) for __I$use$fp
    dcmpin.o(.text) refers to cmpret.o(.text) for __fpl_cmpreturn
    dcmpin.o(.text) refers to dnan2.o(.text) for __fpl_dcheck_NaN2
    __rtentry2.o(.ARM.Collect$$rtentry$$00000008) refers to boardinit2.o(.text) for _platform_post_stackheap_init
    __rtentry2.o(.ARM.Collect$$rtentry$$0000000A) refers to libinit.o(.ARM.Collect$$libinit$$00000000) for __rt_lib_init
    __rtentry2.o(.ARM.Collect$$rtentry$$0000000B) refers to boardinit3.o(.text) for _platform_post_lib_init
    __rtentry2.o(.ARM.Collect$$rtentry$$0000000D) refers to main.o(i.main) for main
    __rtentry2.o(.ARM.Collect$$rtentry$$0000000D) refers to exit.o(.text) for exit
    __rtentry2.o(.ARM.exidx) refers to __rtentry2.o(.ARM.Collect$$rtentry$$00000001) for .ARM.Collect$$rtentry$$00000001
    __rtentry2.o(.ARM.exidx) refers to __rtentry2.o(.ARM.Collect$$rtentry$$00000008) for .ARM.Collect$$rtentry$$00000008
    __rtentry2.o(.ARM.exidx) refers to __rtentry2.o(.ARM.Collect$$rtentry$$0000000A) for .ARM.Collect$$rtentry$$0000000A
    __rtentry2.o(.ARM.exidx) refers to __rtentry2.o(.ARM.Collect$$rtentry$$0000000B) for .ARM.Collect$$rtentry$$0000000B
    __rtentry2.o(.ARM.exidx) refers to __rtentry2.o(.ARM.Collect$$rtentry$$0000000D) for .ARM.Collect$$rtentry$$0000000D
    __rtentry4.o(.ARM.Collect$$rtentry$$00000004) refers to sys_stackheap_outer.o(.text) for __user_setup_stackheap
    __rtentry4.o(.ARM.exidx) refers to __rtentry4.o(.ARM.Collect$$rtentry$$00000004) for .ARM.Collect$$rtentry$$00000004
    rt_div0.o(.text) refers to defsig_fpe_outer.o(.text) for __rt_SIGFPE
    cmpret.o(.text) refers (Special) to usenofp.o(x$fpl$usenofp) for __I$use$fp
    dnan2.o(.text) refers (Special) to usenofp.o(x$fpl$usenofp) for __I$use$fp
    dnan2.o(.text) refers to retnan.o(.text) for __fpl_return_NaN
    sys_stackheap_outer.o(.text) refers to libspace.o(.text) for __user_perproc_libspace
    sys_stackheap_outer.o(.text) refers to startup_stm32f072xb.o(.text) for __user_initial_stackheap
    sys_stackheap_outer.o(__vectab_stack_and_reset_area) refers to tempstk.o(.text) for __temporary_stack_top
    sys_stackheap_outer.o(__vectab_stack_and_reset_area) refers to __main.o(!!!main) for __main
    exit.o(.text) refers to rtexit.o(.ARM.Collect$$rtexit$$00000000) for __rt_exit
    defsig_fpe_outer.o(.text) refers to defsig_fpe_inner.o(.text) for __rt_SIGFPE_inner
    defsig_fpe_outer.o(.text) refers to defsig_exit.o(.text) for __sig_exit
    defsig_fpe_formal.o(.text) refers to rt_raise.o(.text) for __rt_raise
    libinit.o(.ARM.Collect$$libinit$$00000000) refers (Special) to libinit2.o(.ARM.Collect$$libinit$$0000002E) for __rt_lib_init_alloca_1
    libinit.o(.ARM.Collect$$libinit$$00000000) refers (Special) to libinit2.o(.ARM.Collect$$libinit$$0000002C) for __rt_lib_init_argv_1
    libinit.o(.ARM.Collect$$libinit$$00000000) refers (Special) to libinit2.o(.ARM.Collect$$libinit$$0000001B) for __rt_lib_init_atexit_1
    libinit.o(.ARM.Collect$$libinit$$00000000) refers (Special) to libinit2.o(.ARM.Collect$$libinit$$00000021) for __rt_lib_init_clock_1
    libinit.o(.ARM.Collect$$libinit$$00000000) refers (Special) to libinit2.o(.ARM.Collect$$libinit$$00000032) for __rt_lib_init_cpp_1
    libinit.o(.ARM.Collect$$libinit$$00000000) refers (Special) to libinit2.o(.ARM.Collect$$libinit$$00000030) for __rt_lib_init_exceptions_1
    libinit.o(.ARM.Collect$$libinit$$00000000) refers (Special) to libinit2.o(.ARM.Collect$$libinit$$00000002) for __rt_lib_init_fp_1
    libinit.o(.ARM.Collect$$libinit$$00000000) refers (Special) to libinit2.o(.ARM.Collect$$libinit$$0000001F) for __rt_lib_init_fp_trap_1
    libinit.o(.ARM.Collect$$libinit$$00000000) refers (Special) to libinit2.o(.ARM.Collect$$libinit$$00000023) for __rt_lib_init_getenv_1
    libinit.o(.ARM.Collect$$libinit$$00000000) refers (Special) to libinit2.o(.ARM.Collect$$libinit$$0000000A) for __rt_lib_init_heap_1
    libinit.o(.ARM.Collect$$libinit$$00000000) refers (Special) to libinit2.o(.ARM.Collect$$libinit$$00000011) for __rt_lib_init_lc_collate_1
    libinit.o(.ARM.Collect$$libinit$$00000000) refers (Special) to libinit2.o(.ARM.Collect$$libinit$$00000013) for __rt_lib_init_lc_ctype_1
    libinit.o(.ARM.Collect$$libinit$$00000000) refers (Special) to libinit2.o(.ARM.Collect$$libinit$$00000015) for __rt_lib_init_lc_monetary_1
    libinit.o(.ARM.Collect$$libinit$$00000000) refers (Special) to libinit2.o(.ARM.Collect$$libinit$$00000017) for __rt_lib_init_lc_numeric_1
    libinit.o(.ARM.Collect$$libinit$$00000000) refers (Special) to libinit2.o(.ARM.Collect$$libinit$$00000019) for __rt_lib_init_lc_time_1
    libinit.o(.ARM.Collect$$libinit$$00000000) refers (Special) to libinit2.o(.ARM.Collect$$libinit$$00000004) for __rt_lib_init_preinit_1
    libinit.o(.ARM.Collect$$libinit$$00000000) refers (Special) to libinit2.o(.ARM.Collect$$libinit$$0000000E) for __rt_lib_init_rand_1
    libinit.o(.ARM.Collect$$libinit$$00000000) refers (Special) to libinit2.o(.ARM.Collect$$libinit$$00000033) for __rt_lib_init_return
    libinit.o(.ARM.Collect$$libinit$$00000000) refers (Special) to libinit2.o(.ARM.Collect$$libinit$$0000001D) for __rt_lib_init_signal_1
    libinit.o(.ARM.Collect$$libinit$$00000000) refers (Special) to libinit2.o(.ARM.Collect$$libinit$$00000025) for __rt_lib_init_stdio_1
    libinit.o(.ARM.Collect$$libinit$$00000000) refers (Special) to libinit2.o(.ARM.Collect$$libinit$$0000000C) for __rt_lib_init_user_alloc_1
    retnan.o(.text) refers (Special) to usenofp.o(x$fpl$usenofp) for __I$use$fp
    retnan.o(.text) refers to cmpret.o(.text) for __fpl_cmpreturn
    libspace.o(.text) refers to libspace.o(.bss) for __libspace_start
    rtexit.o(.ARM.Collect$$rtexit$$00000000) refers (Special) to rtexit2.o(.ARM.Collect$$rtexit$$00000004) for __rt_exit_exit
    rtexit.o(.ARM.Collect$$rtexit$$00000000) refers (Special) to rtexit2.o(.ARM.Collect$$rtexit$$00000003) for __rt_exit_ls
    rtexit.o(.ARM.Collect$$rtexit$$00000000) refers (Special) to rtexit2.o(.ARM.Collect$$rtexit$$00000002) for __rt_exit_prels_1
    rtexit.o(.ARM.exidx) refers (Special) to rtexit2.o(.ARM.Collect$$rtexit$$00000004) for __rt_exit_exit
    rtexit.o(.ARM.exidx) refers (Special) to rtexit2.o(.ARM.Collect$$rtexit$$00000003) for __rt_exit_ls
    rtexit.o(.ARM.exidx) refers (Special) to rtexit2.o(.ARM.Collect$$rtexit$$00000002) for __rt_exit_prels_1
    rtexit.o(.ARM.exidx) refers to rtexit.o(.ARM.Collect$$rtexit$$00000000) for .ARM.Collect$$rtexit$$00000000
    rt_raise.o(.text) refers to __raise.o(.text) for __raise
    rt_raise.o(.text) refers to sys_exit.o(.text) for _sys_exit
    defsig_exit.o(.text) refers to sys_exit.o(.text) for _sys_exit
    defsig_fpe_inner.o(.text) refers to defsig_general.o(.text) for __default_signal_display
    libinit2.o(.ARM.Collect$$libinit$$00000010) refers to libinit2.o(.ARM.Collect$$libinit$$0000000F) for .ARM.Collect$$libinit$$0000000F
    libinit2.o(.ARM.Collect$$libinit$$00000012) refers to libinit2.o(.ARM.Collect$$libinit$$0000000F) for .ARM.Collect$$libinit$$0000000F
    libinit2.o(.ARM.Collect$$libinit$$00000014) refers to libinit2.o(.ARM.Collect$$libinit$$0000000F) for .ARM.Collect$$libinit$$0000000F
    libinit2.o(.ARM.Collect$$libinit$$00000016) refers to libinit2.o(.ARM.Collect$$libinit$$0000000F) for .ARM.Collect$$libinit$$0000000F
    libinit2.o(.ARM.Collect$$libinit$$00000018) refers to libinit2.o(.ARM.Collect$$libinit$$0000000F) for .ARM.Collect$$libinit$$0000000F
    libinit2.o(.ARM.Collect$$libinit$$00000026) refers to argv_veneer.o(.text) for __ARM_argv_veneer
    libinit2.o(.ARM.Collect$$libinit$$00000027) refers to argv_veneer.o(.text) for __ARM_argv_veneer
    sys_exit.o(.text) refers (Special) to use_no_semi.o(.text) for __I$use$semihosting
    sys_exit.o(.text) refers (Special) to indicate_semi.o(.text) for __semihosting_library_function
    rtexit2.o(.ARM.Collect$$rtexit$$00000003) refers to libshutdown.o(.ARM.Collect$$libshutdown$$00000000) for __rt_lib_shutdown
    rtexit2.o(.ARM.Collect$$rtexit$$00000004) refers to sys_exit.o(.text) for _sys_exit
    rtexit2.o(.ARM.exidx) refers to rtexit2.o(.ARM.Collect$$rtexit$$00000001) for .ARM.Collect$$rtexit$$00000001
    rtexit2.o(.ARM.exidx) refers to rtexit2.o(.ARM.Collect$$rtexit$$00000003) for .ARM.Collect$$rtexit$$00000003
    rtexit2.o(.ARM.exidx) refers to rtexit2.o(.ARM.Collect$$rtexit$$00000004) for .ARM.Collect$$rtexit$$00000004
    __raise.o(.text) refers to defsig.o(CL$$defsig) for __default_signal_handler
    defsig_general.o(.text) refers to sys_wrch.o(.text) for _ttywrch
    sys_wrch.o(.text) refers (Special) to use_no_semi.o(.text) for __I$use$semihosting
    sys_wrch.o(.text) refers (Special) to indicate_semi.o(.text) for __semihosting_library_function
    defsig.o(CL$$defsig) refers to defsig_fpe_inner.o(.text) for __rt_SIGFPE_inner
    defsig.o(CL$$defsig) refers to defsig_rtmem_inner.o(.text) for __rt_SIGRTMEM_inner
    _get_argv_nomalloc.o(.text) refers (Special) to hrguard.o(.text) for __heap_region$guard
    _get_argv_nomalloc.o(.text) refers to defsig_rtmem_outer.o(.text) for __rt_SIGRTMEM
    _get_argv_nomalloc.o(.text) refers to sys_command.o(.text) for _sys_command_string
    libshutdown.o(.ARM.Collect$$libshutdown$$00000000) refers (Special) to libshutdown2.o(.ARM.Collect$$libshutdown$$00000002) for __rt_lib_shutdown_cpp_1
    libshutdown.o(.ARM.Collect$$libshutdown$$00000000) refers (Special) to libshutdown2.o(.ARM.Collect$$libshutdown$$00000007) for __rt_lib_shutdown_fp_trap_1
    libshutdown.o(.ARM.Collect$$libshutdown$$00000000) refers (Special) to libshutdown2.o(.ARM.Collect$$libshutdown$$0000000F) for __rt_lib_shutdown_heap_1
    libshutdown.o(.ARM.Collect$$libshutdown$$00000000) refers (Special) to libshutdown2.o(.ARM.Collect$$libshutdown$$00000010) for __rt_lib_shutdown_return
    libshutdown.o(.ARM.Collect$$libshutdown$$00000000) refers (Special) to libshutdown2.o(.ARM.Collect$$libshutdown$$0000000A) for __rt_lib_shutdown_signal_1
    libshutdown.o(.ARM.Collect$$libshutdown$$00000000) refers (Special) to libshutdown2.o(.ARM.Collect$$libshutdown$$00000004) for __rt_lib_shutdown_stdio_1
    libshutdown.o(.ARM.Collect$$libshutdown$$00000000) refers (Special) to libshutdown2.o(.ARM.Collect$$libshutdown$$0000000C) for __rt_lib_shutdown_user_alloc_1
    sys_command.o(.text) refers (Special) to use_no_semi.o(.text) for __I$use$semihosting
    sys_command.o(.text) refers (Special) to indicate_semi.o(.text) for __semihosting_library_function
    defsig_abrt_inner.o(.text) refers to defsig_general.o(.text) for __default_signal_display
    defsig_rtred_inner.o(.text) refers to defsig_general.o(.text) for __default_signal_display
    defsig_rtmem_inner.o(.text) refers to defsig_general.o(.text) for __default_signal_display
    defsig_rtmem_outer.o(.text) refers to defsig_rtmem_inner.o(.text) for __rt_SIGRTMEM_inner
    defsig_rtmem_outer.o(.text) refers to defsig_exit.o(.text) for __sig_exit
    defsig_rtmem_formal.o(.text) refers to rt_raise.o(.text) for __rt_raise
    defsig_stak_inner.o(.text) refers to defsig_general.o(.text) for __default_signal_display
    defsig_pvfn_inner.o(.text) refers to defsig_general.o(.text) for __default_signal_display
    defsig_cppl_inner.o(.text) refers to defsig_general.o(.text) for __default_signal_display
    defsig_segv_inner.o(.text) refers to defsig_general.o(.text) for __default_signal_display
    defsig_other.o(.text) refers to defsig_general.o(.text) for __default_signal_display


==============================================================================

Removing Unused input sections from the image.

    Removing stm32f0xx_it.o(.rev16_text), (4 bytes).
    Removing stm32f0xx_it.o(.revsh_text), (4 bytes).
    Removing system_stm32f0xx.o(.rev16_text), (4 bytes).
    Removing system_stm32f0xx.o(.revsh_text), (4 bytes).
    Removing system_stm32f0xx.o(i.SetSysClock), (216 bytes).
    Removing system_stm32f0xx.o(i.SystemCoreClockUpdate), (176 bytes).
    Removing system_stm32f0xx.o(.data), (20 bytes).
    Removing main.o(.rev16_text), (4 bytes).
    Removing main.o(.revsh_text), (4 bytes).
    Removing bsp.o(.rev16_text), (4 bytes).
    Removing bsp.o(.revsh_text), (4 bytes).
    Removing bsp.o(i.Uart1Init), (204 bytes).
    Removing bsp.o(i.Uart4Init), (2 bytes).
    Removing bsp.o(i.WWDGReset), (32 bytes).
    Removing flash_if.o(.rev16_text), (4 bytes).
    Removing flash_if.o(.revsh_text), (4 bytes).
    Removing core.o(.rev16_text), (4 bytes).
    Removing core.o(.revsh_text), (4 bytes).
    Removing core.o(i.CoreTranserOpenBT), (32 bytes).
    Removing detection.o(.rev16_text), (4 bytes).
    Removing detection.o(.revsh_text), (4 bytes).
    Removing drive.o(.rev16_text), (4 bytes).
    Removing drive.o(.revsh_text), (4 bytes).
    Removing drive.o(i.DEBUG_STR), (2 bytes).
    Removing drive.o(i.MemCopy), (24 bytes).
    Removing key.o(.rev16_text), (4 bytes).
    Removing key.o(.revsh_text), (4 bytes).
    Removing key.o(i.ScanTunEncodekey), (196 bytes).
    Removing armuart.o(.rev16_text), (4 bytes).
    Removing armuart.o(.revsh_text), (4 bytes).
    Removing armuart.o(i.ReportBackTrace), (144 bytes).
    Removing armuart.o(i.ReportHeartbeat), (66 bytes).
    Removing armuart.o(i.Uart2DmaSendProcess), (152 bytes).
    Removing stm32f0xx_can.o(.rev16_text), (4 bytes).
    Removing stm32f0xx_can.o(.revsh_text), (4 bytes).
    Removing stm32f0xx_can.o(i.CAN_CancelTransmit), (54 bytes).
    Removing stm32f0xx_can.o(i.CAN_ClearFlag), (68 bytes).
    Removing stm32f0xx_can.o(i.CAN_DBGFreeze), (28 bytes).
    Removing stm32f0xx_can.o(i.CAN_DeInit), (36 bytes).
    Removing stm32f0xx_can.o(i.CAN_FIFORelease), (24 bytes).
    Removing stm32f0xx_can.o(i.CAN_FilterInit), (252 bytes).
    Removing stm32f0xx_can.o(i.CAN_GetFlagStatus), (146 bytes).
    Removing stm32f0xx_can.o(i.CAN_GetITStatus), (312 bytes).
    Removing stm32f0xx_can.o(i.CAN_GetLSBTransmitErrorCounter), (16 bytes).
    Removing stm32f0xx_can.o(i.CAN_GetLastErrorCode), (14 bytes).
    Removing stm32f0xx_can.o(i.CAN_GetReceiveErrorCounter), (10 bytes).
    Removing stm32f0xx_can.o(i.CAN_ITConfig), (20 bytes).
    Removing stm32f0xx_can.o(i.CAN_Init), (284 bytes).
    Removing stm32f0xx_can.o(i.CAN_MessagePending), (32 bytes).
    Removing stm32f0xx_can.o(i.CAN_OperatingModeRequest), (172 bytes).
    Removing stm32f0xx_can.o(i.CAN_SlaveStartBank), (56 bytes).
    Removing stm32f0xx_can.o(i.CAN_Sleep), (30 bytes).
    Removing stm32f0xx_can.o(i.CAN_StructInit), (32 bytes).
    Removing stm32f0xx_can.o(i.CAN_TTComModeCmd), (128 bytes).
    Removing stm32f0xx_can.o(i.CAN_TransmitStatus), (176 bytes).
    Removing stm32f0xx_can.o(i.CAN_WakeUp), (52 bytes).
    Removing stm32f0xx_can.o(i.CheckITStatus), (20 bytes).
    Removing swc.o(.rev16_text), (4 bytes).
    Removing swc.o(.revsh_text), (4 bytes).
    Removing swc.o(i.AD_SW2_Init), (32 bytes).
    Removing swc.o(i.ClrADC_Data), (28 bytes).
    Removing swc.o(i.Panel_Init), (8 bytes).
    Removing swc.o(i.PostKeyCode), (2 bytes).
    Removing swc.o(i.SetADC_Data), (34 bytes).
    Removing usart1.o(.rev16_text), (4 bytes).
    Removing usart1.o(.revsh_text), (4 bytes).
    Removing app_can.o(.rev16_text), (4 bytes).
    Removing app_can.o(.revsh_text), (4 bytes).
    Removing app_can.o(i.CanDataRxPro), (196 bytes).
    Removing app_can.o(i.ReportAirHeatData), (160 bytes).
    Removing app_can.o(i.ReportCANData), (160 bytes).
    Removing mw_can.o(.rev16_text), (4 bytes).
    Removing mw_can.o(.revsh_text), (4 bytes).
    Removing mw_can.o(i.CAN_Configuration), (192 bytes).
    Removing mw_can.o(i.CanBufCnt), (36 bytes).
    Removing mw_can.o(i.CanBufInit), (40 bytes).
    Removing mw_can.o(i.CanGetFromBuf), (48 bytes).
    Removing mw_can.o(i.CanRxCnt), (14 bytes).
    Removing mw_can.o(i.CanRxData), (22 bytes).
    Removing mw_can.o(i.CanTxCnt), (14 bytes).
    Removing mw_can.o(i.CanTxData), (38 bytes).
    Removing mw_can.o(i.Can_Tx_DataPro), (72 bytes).
    Removing mw_can.o(i.GPIO_Configuration), (120 bytes).
    Removing mw_can.o(i.NVIC_Configuration), (22 bytes).
    Removing mw_can.o(i.SysCanExit), (12 bytes).
    Removing mw_can.o(i.SysCanInit), (48 bytes).
    Removing stm32f0xx_rcc.o(.rev16_text), (4 bytes).
    Removing stm32f0xx_rcc.o(.revsh_text), (4 bytes).
    Removing stm32f0xx_rcc.o(i.RCC_ADCCLKConfig), (56 bytes).
    Removing stm32f0xx_rcc.o(i.RCC_AHBPeriphResetCmd), (32 bytes).
    Removing stm32f0xx_rcc.o(i.RCC_AdjustHSI14CalibrationValue), (32 bytes).
    Removing stm32f0xx_rcc.o(i.RCC_AdjustHSICalibrationValue), (32 bytes).
    Removing stm32f0xx_rcc.o(i.RCC_BackupResetCmd), (40 bytes).
    Removing stm32f0xx_rcc.o(i.RCC_CECCLKConfig), (28 bytes).
    Removing stm32f0xx_rcc.o(i.RCC_ClearFlag), (20 bytes).
    Removing stm32f0xx_rcc.o(i.RCC_ClearITPendingBit), (12 bytes).
    Removing stm32f0xx_rcc.o(i.RCC_ClockSecuritySystemCmd), (40 bytes).
    Removing stm32f0xx_rcc.o(i.RCC_DeInit), (116 bytes).
    Removing stm32f0xx_rcc.o(i.RCC_GetFlagStatus), (72 bytes).
    Removing stm32f0xx_rcc.o(i.RCC_GetITStatus), (28 bytes).
    Removing stm32f0xx_rcc.o(i.RCC_GetSYSCLKSource), (16 bytes).
    Removing stm32f0xx_rcc.o(i.RCC_HCLKConfig), (32 bytes).
    Removing stm32f0xx_rcc.o(i.RCC_HSEConfig), (16 bytes).
    Removing stm32f0xx_rcc.o(i.RCC_HSI14ADCRequestCmd), (36 bytes).
    Removing stm32f0xx_rcc.o(i.RCC_HSI14Cmd), (36 bytes).
    Removing stm32f0xx_rcc.o(i.RCC_HSI48Cmd), (40 bytes).
    Removing stm32f0xx_rcc.o(i.RCC_HSICmd), (36 bytes).
    Removing stm32f0xx_rcc.o(i.RCC_I2CCLKConfig), (28 bytes).
    Removing stm32f0xx_rcc.o(i.RCC_ITConfig), (32 bytes).
    Removing stm32f0xx_rcc.o(i.RCC_LSEConfig), (40 bytes).
    Removing stm32f0xx_rcc.o(i.RCC_LSEDriveConfig), (28 bytes).
    Removing stm32f0xx_rcc.o(i.RCC_LSICmd), (36 bytes).
    Removing stm32f0xx_rcc.o(i.RCC_MCOConfig), (28 bytes).
    Removing stm32f0xx_rcc.o(i.RCC_PCLKConfig), (36 bytes).
    Removing stm32f0xx_rcc.o(i.RCC_PLLCmd), (40 bytes).
    Removing stm32f0xx_rcc.o(i.RCC_PLLConfig), (36 bytes).
    Removing stm32f0xx_rcc.o(i.RCC_PREDIV1Config), (28 bytes).
    Removing stm32f0xx_rcc.o(i.RCC_RTCCLKCmd), (40 bytes).
    Removing stm32f0xx_rcc.o(i.RCC_RTCCLKConfig), (16 bytes).
    Removing stm32f0xx_rcc.o(i.RCC_SYSCLKConfig), (28 bytes).
    Removing stm32f0xx_rcc.o(i.RCC_USBCLKConfig), (28 bytes).
    Removing stm32f0xx_rcc.o(i.RCC_WaitForHSEStartUp), (60 bytes).
    Removing stm32f0xx_gpio.o(.rev16_text), (4 bytes).
    Removing stm32f0xx_gpio.o(.revsh_text), (4 bytes).
    Removing stm32f0xx_gpio.o(i.GPIO_DeInit), (176 bytes).
    Removing stm32f0xx_gpio.o(i.GPIO_PinLockConfig), (34 bytes).
    Removing stm32f0xx_gpio.o(i.GPIO_ReadInputData), (6 bytes).
    Removing stm32f0xx_gpio.o(i.GPIO_ReadInputDataBit), (20 bytes).
    Removing stm32f0xx_gpio.o(i.GPIO_ReadOutputData), (6 bytes).
    Removing stm32f0xx_gpio.o(i.GPIO_ReadOutputDataBit), (20 bytes).
    Removing stm32f0xx_gpio.o(i.GPIO_ResetBits), (4 bytes).
    Removing stm32f0xx_gpio.o(i.GPIO_SetBits), (4 bytes).
    Removing stm32f0xx_gpio.o(i.GPIO_StructInit), (24 bytes).
    Removing stm32f0xx_gpio.o(i.GPIO_Write), (4 bytes).
    Removing stm32f0xx_gpio.o(i.GPIO_WriteBit), (12 bytes).
    Removing stm32f0xx_exti.o(.rev16_text), (4 bytes).
    Removing stm32f0xx_exti.o(.revsh_text), (4 bytes).
    Removing stm32f0xx_exti.o(i.EXTI_ClearFlag), (12 bytes).
    Removing stm32f0xx_exti.o(i.EXTI_DeInit), (32 bytes).
    Removing stm32f0xx_exti.o(i.EXTI_GenerateSWInterrupt), (16 bytes).
    Removing stm32f0xx_exti.o(i.EXTI_GetFlagStatus), (28 bytes).
    Removing stm32f0xx_misc.o(.rev16_text), (4 bytes).
    Removing stm32f0xx_misc.o(.revsh_text), (4 bytes).
    Removing stm32f0xx_misc.o(i.NVIC_SystemLPConfig), (32 bytes).
    Removing stm32f0xx_misc.o(i.SysTick_CLKSourceConfig), (36 bytes).
    Removing stm32f0xx_tim.o(.rev16_text), (4 bytes).
    Removing stm32f0xx_tim.o(.revsh_text), (4 bytes).
    Removing stm32f0xx_tim.o(i.TI1_Config), (56 bytes).
    Removing stm32f0xx_tim.o(i.TI2_Config), (76 bytes).
    Removing stm32f0xx_tim.o(i.TI3_Config), (72 bytes).
    Removing stm32f0xx_tim.o(i.TI4_Config), (80 bytes).
    Removing stm32f0xx_tim.o(i.TIM_ARRPreloadConfig), (28 bytes).
    Removing stm32f0xx_tim.o(i.TIM_BDTRConfig), (32 bytes).
    Removing stm32f0xx_tim.o(i.TIM_BDTRStructInit), (18 bytes).
    Removing stm32f0xx_tim.o(i.TIM_CCPreloadControl), (28 bytes).
    Removing stm32f0xx_tim.o(i.TIM_CCxCmd), (30 bytes).
    Removing stm32f0xx_tim.o(i.TIM_CCxNCmd), (30 bytes).
    Removing stm32f0xx_tim.o(i.TIM_ClearFlag), (6 bytes).
    Removing stm32f0xx_tim.o(i.TIM_ClearITPendingBit), (6 bytes).
    Removing stm32f0xx_tim.o(i.TIM_ClearOC1Ref), (24 bytes).
    Removing stm32f0xx_tim.o(i.TIM_ClearOC2Ref), (20 bytes).
    Removing stm32f0xx_tim.o(i.TIM_ClearOC3Ref), (24 bytes).
    Removing stm32f0xx_tim.o(i.TIM_ClearOC4Ref), (20 bytes).
    Removing stm32f0xx_tim.o(i.TIM_CounterModeConfig), (24 bytes).
    Removing stm32f0xx_tim.o(i.TIM_CtrlPWMOutputs), (34 bytes).
    Removing stm32f0xx_tim.o(i.TIM_DMACmd), (20 bytes).
    Removing stm32f0xx_tim.o(i.TIM_DMAConfig), (12 bytes).
    Removing stm32f0xx_tim.o(i.TIM_DeInit), (260 bytes).
    Removing stm32f0xx_tim.o(i.TIM_ETRClockMode1Config), (52 bytes).
    Removing stm32f0xx_tim.o(i.TIM_ETRClockMode2Config), (34 bytes).
    Removing stm32f0xx_tim.o(i.TIM_ETRConfig), (24 bytes).
    Removing stm32f0xx_tim.o(i.TIM_EncoderInterfaceConfig), (68 bytes).
    Removing stm32f0xx_tim.o(i.TIM_ForcedOC1Config), (24 bytes).
    Removing stm32f0xx_tim.o(i.TIM_ForcedOC2Config), (24 bytes).
    Removing stm32f0xx_tim.o(i.TIM_ForcedOC3Config), (24 bytes).
    Removing stm32f0xx_tim.o(i.TIM_ForcedOC4Config), (24 bytes).
    Removing stm32f0xx_tim.o(i.TIM_GenerateEvent), (4 bytes).
    Removing stm32f0xx_tim.o(i.TIM_GetCapture1), (6 bytes).
    Removing stm32f0xx_tim.o(i.TIM_GetCapture2), (6 bytes).
    Removing stm32f0xx_tim.o(i.TIM_GetCapture3), (6 bytes).
    Removing stm32f0xx_tim.o(i.TIM_GetCapture4), (6 bytes).
    Removing stm32f0xx_tim.o(i.TIM_GetFlagStatus), (20 bytes).
    Removing stm32f0xx_tim.o(i.TIM_GetITStatus), (38 bytes).
    Removing stm32f0xx_tim.o(i.TIM_GetPrescaler), (6 bytes).
    Removing stm32f0xx_tim.o(i.TIM_ICInit), (112 bytes).
    Removing stm32f0xx_tim.o(i.TIM_ICStructInit), (18 bytes).
    Removing stm32f0xx_tim.o(i.TIM_ITRxExternalClockConfig), (24 bytes).
    Removing stm32f0xx_tim.o(i.TIM_InternalClockConfig), (16 bytes).
    Removing stm32f0xx_tim.o(i.TIM_OC1FastConfig), (24 bytes).
    Removing stm32f0xx_tim.o(i.TIM_OC1Init), (148 bytes).
    Removing stm32f0xx_tim.o(i.TIM_OC1NPolarityConfig), (24 bytes).
    Removing stm32f0xx_tim.o(i.TIM_OC1PolarityConfig), (24 bytes).
    Removing stm32f0xx_tim.o(i.TIM_OC1PreloadConfig), (24 bytes).
    Removing stm32f0xx_tim.o(i.TIM_OC2FastConfig), (24 bytes).
    Removing stm32f0xx_tim.o(i.TIM_OC2Init), (172 bytes).
    Removing stm32f0xx_tim.o(i.TIM_OC2NPolarityConfig), (24 bytes).
    Removing stm32f0xx_tim.o(i.TIM_OC2PolarityConfig), (24 bytes).
    Removing stm32f0xx_tim.o(i.TIM_OC2PreloadConfig), (24 bytes).
    Removing stm32f0xx_tim.o(i.TIM_OC3FastConfig), (24 bytes).
    Removing stm32f0xx_tim.o(i.TIM_OC3Init), (152 bytes).
    Removing stm32f0xx_tim.o(i.TIM_OC3NPolarityConfig), (24 bytes).
    Removing stm32f0xx_tim.o(i.TIM_OC3PolarityConfig), (24 bytes).
    Removing stm32f0xx_tim.o(i.TIM_OC3PreloadConfig), (24 bytes).
    Removing stm32f0xx_tim.o(i.TIM_OC4FastConfig), (24 bytes).
    Removing stm32f0xx_tim.o(i.TIM_OC4Init), (112 bytes).
    Removing stm32f0xx_tim.o(i.TIM_OC4PolarityConfig), (24 bytes).
    Removing stm32f0xx_tim.o(i.TIM_OC4PreloadConfig), (24 bytes).
    Removing stm32f0xx_tim.o(i.TIM_OCStructInit), (20 bytes).
    Removing stm32f0xx_tim.o(i.TIM_PWMIConfig), (124 bytes).
    Removing stm32f0xx_tim.o(i.TIM_PrescalerConfig), (6 bytes).
    Removing stm32f0xx_tim.o(i.TIM_RemapConfig), (6 bytes).
    Removing stm32f0xx_tim.o(i.TIM_SelectCCDMA), (28 bytes).
    Removing stm32f0xx_tim.o(i.TIM_SelectCOM), (28 bytes).
    Removing stm32f0xx_tim.o(i.TIM_SelectHallSensor), (28 bytes).
    Removing stm32f0xx_tim.o(i.TIM_SelectInputTrigger), (24 bytes).
    Removing stm32f0xx_tim.o(i.TIM_SelectMasterSlaveMode), (20 bytes).
    Removing stm32f0xx_tim.o(i.TIM_SelectOCREFClear), (20 bytes).
    Removing stm32f0xx_tim.o(i.TIM_SelectOCxM), (82 bytes).
    Removing stm32f0xx_tim.o(i.TIM_SelectOnePulseMode), (20 bytes).
    Removing stm32f0xx_tim.o(i.TIM_SelectOutputTrigger), (20 bytes).
    Removing stm32f0xx_tim.o(i.TIM_SelectSlaveMode), (20 bytes).
    Removing stm32f0xx_tim.o(i.TIM_SetClockDivision), (20 bytes).
    Removing stm32f0xx_tim.o(i.TIM_SetCompare1), (4 bytes).
    Removing stm32f0xx_tim.o(i.TIM_SetCompare2), (4 bytes).
    Removing stm32f0xx_tim.o(i.TIM_SetCompare3), (4 bytes).
    Removing stm32f0xx_tim.o(i.TIM_SetCompare4), (4 bytes).
    Removing stm32f0xx_tim.o(i.TIM_SetIC1Prescaler), (20 bytes).
    Removing stm32f0xx_tim.o(i.TIM_SetIC2Prescaler), (24 bytes).
    Removing stm32f0xx_tim.o(i.TIM_SetIC3Prescaler), (20 bytes).
    Removing stm32f0xx_tim.o(i.TIM_SetIC4Prescaler), (24 bytes).
    Removing stm32f0xx_tim.o(i.TIM_TIxExternalClockConfig), (58 bytes).
    Removing stm32f0xx_tim.o(i.TIM_TimeBaseStructInit), (18 bytes).
    Removing stm32f0xx_tim.o(i.TIM_UpdateDisableConfig), (28 bytes).
    Removing stm32f0xx_tim.o(i.TIM_UpdateRequestConfig), (28 bytes).
    Removing irda.o(.rev16_text), (4 bytes).
    Removing irda.o(.revsh_text), (4 bytes).
    Removing irda.o(i.Delay_us_break), (6 bytes).
    Removing irda.o(i.IS_IR_HIGH), (16 bytes).
    Removing irda.o(i.IS_IR_LOW), (16 bytes).
    Removing irda.o(i.IrdaIntrProbe), (2 bytes).
    Removing irda.o(.constdata), (1 bytes).
    Removing stm32f0xx_syscfg.o(.rev16_text), (4 bytes).
    Removing stm32f0xx_syscfg.o(.revsh_text), (4 bytes).
    Removing stm32f0xx_syscfg.o(i.SYSCFG_BreakConfig), (16 bytes).
    Removing stm32f0xx_syscfg.o(i.SYSCFG_ClearFlag), (16 bytes).
    Removing stm32f0xx_syscfg.o(i.SYSCFG_DMAChannelRemapConfig), (32 bytes).
    Removing stm32f0xx_syscfg.o(i.SYSCFG_DeInit), (44 bytes).
    Removing stm32f0xx_syscfg.o(i.SYSCFG_GetFlagStatus), (32 bytes).
    Removing stm32f0xx_syscfg.o(i.SYSCFG_I2CFastModePlusConfig), (32 bytes).
    Removing stm32f0xx_syscfg.o(i.SYSCFG_MemoryRemapConfig), (28 bytes).
    Removing stm32f0xx_usart.o(.rev16_text), (4 bytes).
    Removing stm32f0xx_usart.o(.revsh_text), (4 bytes).
    Removing stm32f0xx_usart.o(i.USART_AddressDetectionConfig), (16 bytes).
    Removing stm32f0xx_usart.o(i.USART_AutoBaudRateCmd), (28 bytes).
    Removing stm32f0xx_usart.o(i.USART_AutoBaudRateConfig), (18 bytes).
    Removing stm32f0xx_usart.o(i.USART_ClockInit), (36 bytes).
    Removing stm32f0xx_usart.o(i.USART_ClockStructInit), (12 bytes).
    Removing stm32f0xx_usart.o(i.USART_DECmd), (28 bytes).
    Removing stm32f0xx_usart.o(i.USART_DEPolarityConfig), (18 bytes).
    Removing stm32f0xx_usart.o(i.USART_DMACmd), (20 bytes).
    Removing stm32f0xx_usart.o(i.USART_DMAReceptionErrorConfig), (18 bytes).
    Removing stm32f0xx_usart.o(i.USART_DataInvCmd), (28 bytes).
    Removing stm32f0xx_usart.o(i.USART_DirectionModeCmd), (20 bytes).
    Removing stm32f0xx_usart.o(i.USART_GetITStatus), (78 bytes).
    Removing stm32f0xx_usart.o(i.USART_HalfDuplexCmd), (24 bytes).
    Removing stm32f0xx_usart.o(i.USART_InvPinCmd), (20 bytes).
    Removing stm32f0xx_usart.o(i.USART_IrDACmd), (24 bytes).
    Removing stm32f0xx_usart.o(i.USART_IrDAConfig), (16 bytes).
    Removing stm32f0xx_usart.o(i.USART_LINBreakDetectLengthConfig), (16 bytes).
    Removing stm32f0xx_usart.o(i.USART_LINCmd), (28 bytes).
    Removing stm32f0xx_usart.o(i.USART_MSBFirstCmd), (28 bytes).
    Removing stm32f0xx_usart.o(i.USART_MuteModeCmd), (28 bytes).
    Removing stm32f0xx_usart.o(i.USART_MuteModeWakeUpConfig), (18 bytes).
    Removing stm32f0xx_usart.o(i.USART_OneBitMethodCmd), (28 bytes).
    Removing stm32f0xx_usart.o(i.USART_OverSampling8Cmd), (28 bytes).
    Removing stm32f0xx_usart.o(i.USART_OverrunDetectionConfig), (18 bytes).
    Removing stm32f0xx_usart.o(i.USART_ReceiverTimeOutCmd), (28 bytes).
    Removing stm32f0xx_usart.o(i.USART_RequestCmd), (20 bytes).
    Removing stm32f0xx_usart.o(i.USART_STOPModeCmd), (24 bytes).
    Removing stm32f0xx_usart.o(i.USART_SWAPPinCmd), (28 bytes).
    Removing stm32f0xx_usart.o(i.USART_SetAddress), (18 bytes).
    Removing stm32f0xx_usart.o(i.USART_SetAutoRetryCount), (20 bytes).
    Removing stm32f0xx_usart.o(i.USART_SetBlockLength), (18 bytes).
    Removing stm32f0xx_usart.o(i.USART_SetDEAssertionTime), (20 bytes).
    Removing stm32f0xx_usart.o(i.USART_SetDEDeassertionTime), (20 bytes).
    Removing stm32f0xx_usart.o(i.USART_SetGuardTime), (16 bytes).
    Removing stm32f0xx_usart.o(i.USART_SetPrescaler), (18 bytes).
    Removing stm32f0xx_usart.o(i.USART_SetReceiverTimeOut), (16 bytes).
    Removing stm32f0xx_usart.o(i.USART_SmartCardCmd), (24 bytes).
    Removing stm32f0xx_usart.o(i.USART_SmartCardNACKCmd), (24 bytes).
    Removing stm32f0xx_usart.o(i.USART_StopModeWakeUpSourceConfig), (18 bytes).
    Removing stm32f0xx_usart.o(i.USART_StructInit), (24 bytes).
    Removing radio.o(.rev16_text), (4 bytes).
    Removing radio.o(.revsh_text), (4 bytes).
    Removing radio.o(i.AutoAlignDigitalFilter), (62 bytes).
    Removing radio.o(i.GetMaxOctStat), (22 bytes).
    Removing radio.o(i.RadListenCk), (64 bytes).
    Removing radio.o(i.RadSpKyCk), (132 bytes).
    Removing radio.o(i.RadTmpDisp), (2 bytes).
    Removing radio.o(i.Radio7786ChangeBand), (22 bytes).
    Removing radio.o(i.RadioDpFreq), (2 bytes).
    Removing radio.o(i.StatNumMulN), (16 bytes).
    Removing usart4.o(.rev16_text), (4 bytes).
    Removing usart4.o(.revsh_text), (4 bytes).
    Removing rtc_time.o(.rev16_text), (4 bytes).
    Removing rtc_time.o(.revsh_text), (4 bytes).
    Removing rtc_time.o(i.RTC_AlarmShow), (72 bytes).
    Removing rtc_time.o(i.RTC_Calibration), (160 bytes).
    Removing rtc_time.o(i.RTC_Config), (76 bytes).
    Removing rtc_time.o(i.RTC_DateShow), (92 bytes).
    Removing rtc_time.o(i.RTC_Proc), (300 bytes).
    Removing rtc_time.o(i.RTC_TimeRegulate), (696 bytes).
    Removing rtc_time.o(.conststring), (69 bytes).
    Removing rtc_time.o(.data), (10 bytes).
    Removing stm32f0xx_rtc.o(.rev16_text), (4 bytes).
    Removing stm32f0xx_rtc.o(.revsh_text), (4 bytes).
    Removing stm32f0xx_rtc.o(i.RTC_AlarmCmd), (112 bytes).
    Removing stm32f0xx_rtc.o(i.RTC_AlarmStructInit), (22 bytes).
    Removing stm32f0xx_rtc.o(i.RTC_AlarmSubSecondConfig), (40 bytes).
    Removing stm32f0xx_rtc.o(i.RTC_BypassShadowCmd), (52 bytes).
    Removing stm32f0xx_rtc.o(i.RTC_ByteToBcd2), (28 bytes).
    Removing stm32f0xx_rtc.o(i.RTC_CalibOutputCmd), (56 bytes).
    Removing stm32f0xx_rtc.o(i.RTC_CalibOutputConfig), (44 bytes).
    Removing stm32f0xx_rtc.o(i.RTC_ClearFlag), (32 bytes).
    Removing stm32f0xx_rtc.o(i.RTC_DateStructInit), (14 bytes).
    Removing stm32f0xx_rtc.o(i.RTC_DayLightSavingConfig), (48 bytes).
    Removing stm32f0xx_rtc.o(i.RTC_DeInit), (116 bytes).
    Removing stm32f0xx_rtc.o(i.RTC_EnterInitMode), (88 bytes).
    Removing stm32f0xx_rtc.o(i.RTC_ExitInitMode), (20 bytes).
    Removing stm32f0xx_rtc.o(i.RTC_GetAlarm), (120 bytes).
    Removing stm32f0xx_rtc.o(i.RTC_GetAlarmSubSecond), (20 bytes).
    Removing stm32f0xx_rtc.o(i.RTC_GetDate), (96 bytes).
    Removing stm32f0xx_rtc.o(i.RTC_GetFlagStatus), (44 bytes).
    Removing stm32f0xx_rtc.o(i.RTC_GetStoreOperation), (16 bytes).
    Removing stm32f0xx_rtc.o(i.RTC_GetSubSecond), (16 bytes).
    Removing stm32f0xx_rtc.o(i.RTC_GetTimeStamp), (164 bytes).
    Removing stm32f0xx_rtc.o(i.RTC_GetTimeStampSubSecond), (12 bytes).
    Removing stm32f0xx_rtc.o(i.RTC_GetWakeUpCounter), (12 bytes).
    Removing stm32f0xx_rtc.o(i.RTC_ITConfig), (100 bytes).
    Removing stm32f0xx_rtc.o(i.RTC_Init), (88 bytes).
    Removing stm32f0xx_rtc.o(i.RTC_OutputConfig), (48 bytes).
    Removing stm32f0xx_rtc.o(i.RTC_OutputTypeConfig), (28 bytes).
    Removing stm32f0xx_rtc.o(i.RTC_ReadBackupRegister), (32 bytes).
    Removing stm32f0xx_rtc.o(i.RTC_RefClockCmd), (76 bytes).
    Removing stm32f0xx_rtc.o(i.RTC_SetAlarm), (216 bytes).
    Removing stm32f0xx_rtc.o(i.RTC_SetDate), (208 bytes).
    Removing stm32f0xx_rtc.o(i.RTC_SetTime), (216 bytes).
    Removing stm32f0xx_rtc.o(i.RTC_SetWakeUpCounter), (24 bytes).
    Removing stm32f0xx_rtc.o(i.RTC_SmoothCalibConfig), (96 bytes).
    Removing stm32f0xx_rtc.o(i.RTC_StructInit), (14 bytes).
    Removing stm32f0xx_rtc.o(i.RTC_SynchroShiftConfig), (124 bytes).
    Removing stm32f0xx_rtc.o(i.RTC_TamperCmd), (32 bytes).
    Removing stm32f0xx_rtc.o(i.RTC_TamperFilterConfig), (28 bytes).
    Removing stm32f0xx_rtc.o(i.RTC_TamperPinsPrechargeDuration), (28 bytes).
    Removing stm32f0xx_rtc.o(i.RTC_TamperPullUpCmd), (40 bytes).
    Removing stm32f0xx_rtc.o(i.RTC_TamperSamplingFreqConfig), (28 bytes).
    Removing stm32f0xx_rtc.o(i.RTC_TamperTriggerConfig), (36 bytes).
    Removing stm32f0xx_rtc.o(i.RTC_TimeStampCmd), (64 bytes).
    Removing stm32f0xx_rtc.o(i.RTC_TimeStampOnTamperDetectionCmd), (36 bytes).
    Removing stm32f0xx_rtc.o(i.RTC_TimeStructInit), (12 bytes).
    Removing stm32f0xx_rtc.o(i.RTC_WaitForSynchro), (108 bytes).
    Removing stm32f0xx_rtc.o(i.RTC_WakeUpClockConfig), (40 bytes).
    Removing stm32f0xx_rtc.o(i.RTC_WakeUpCmd), (116 bytes).
    Removing stm32f0xx_rtc.o(i.RTC_WriteBackupRegister), (28 bytes).
    Removing stm32f0xx_rtc.o(i.RTC_WriteProtectionCmd), (28 bytes).
    Removing stm32f0xx_pwr.o(.rev16_text), (4 bytes).
    Removing stm32f0xx_pwr.o(.revsh_text), (4 bytes).
    Removing stm32f0xx_pwr.o(i.PWR_BackupAccessCmd), (40 bytes).
    Removing stm32f0xx_pwr.o(i.PWR_ClearFlag), (20 bytes).
    Removing stm32f0xx_pwr.o(i.PWR_DeInit), (22 bytes).
    Removing stm32f0xx_pwr.o(i.PWR_EnterSTANDBYMode), (48 bytes).
    Removing stm32f0xx_pwr.o(i.PWR_EnterSTOPMode), (100 bytes).
    Removing stm32f0xx_pwr.o(i.PWR_EnterSleepMode), (28 bytes).
    Removing stm32f0xx_pwr.o(i.PWR_GetFlagStatus), (28 bytes).
    Removing stm32f0xx_pwr.o(i.PWR_PVDCmd), (36 bytes).
    Removing stm32f0xx_pwr.o(i.PWR_PVDLevelConfig), (32 bytes).
    Removing stm32f0xx_pwr.o(i.PWR_WakeUpPinCmd), (32 bytes).
    Removing sch_common.o(.rev16_text), (4 bytes).
    Removing sch_common.o(.revsh_text), (4 bytes).
    Removing sch_common.o(i.GetAverage_U8), (38 bytes).
    Removing sch_common.o(i.GetCheckData_Add), (28 bytes).
    Removing sch_common.o(i.GetCheckData_Xor), (26 bytes).
    Removing sch_common.o(i.GetMax), (14 bytes).
    Removing sch_common.o(i.GetMin), (14 bytes).
    Removing sch_common.o(i.IsInArray_U16), (36 bytes).
    Removing sch_common.o(i.IsInRange), (26 bytes).
    Removing sch_common.o(i.SysWaitMs), (24 bytes).
    Removing sch_message.o(.rev16_text), (4 bytes).
    Removing sch_message.o(.revsh_text), (4 bytes).
    Removing sch_message.o(i.ClearAllModeMessage), (24 bytes).
    Removing sch_message.o(i.ClearMessage), (20 bytes).
    Removing sch_message.o(i.InsertMessage), (36 bytes).
    Removing sch_printf.o(.rev16_text), (4 bytes).
    Removing sch_printf.o(.revsh_text), (4 bytes).
    Removing sch_printf.o(.constdata), (4 bytes).
    Removing sch_printf.o(.conststring), (12 bytes).
    Removing sch_queue.o(.rev16_text), (4 bytes).
    Removing sch_queue.o(.revsh_text), (4 bytes).
    Removing sch_queue.o(i.Queue_Cnt), (6 bytes).
    Removing sch_queue.o(i.Queue_Insert), (104 bytes).
    Removing sch_queue.o(i.Queue_IsEmpty), (16 bytes).
    Removing sch_queue.o(i.Queue_IsFull), (18 bytes).
    Removing mw_uart.o(.rev16_text), (4 bytes).
    Removing mw_uart.o(.revsh_text), (4 bytes).
    Removing mw_uart.o(i.SysUartExit), (32 bytes).
    Removing mw_uart.o(i.UART_IntSerive), (160 bytes).
    Removing mw_uart.o(i.UartBufCnt), (36 bytes).
    Removing mw_uart.o(i.UartGetFromBuf), (48 bytes).
    Removing mw_uart.o(i.UartPutToBuf), (48 bytes).
    Removing mw_uart.o(i.UartRxCnt), (14 bytes).
    Removing mw_uart.o(i.UartRxData), (22 bytes).
    Removing mw_uart.o(i.UartTxCnt), (14 bytes).
    Removing mw_uart.o(i.UartTxData), (72 bytes).
    Removing mw_uart.o(i.UartTxIntDis), (28 bytes).
    Removing mw_uart.o(i.UartTxIntEn), (28 bytes).
    Removing mw_uart.o(i.Uart_Rx_DataPro), (18 bytes).
    Removing mw_uart.o(i.Uart_Tx_DataPro), (58 bytes).
    Removing rds.o(.rev16_text), (4 bytes).
    Removing rds.o(.revsh_text), (4 bytes).
    Removing rds.o(i.RDSBlkSync), (88 bytes).
    Removing rds.o(i.RDSCheckOrder), (88 bytes).
    Removing rds.o(i.RDSClearStk0), (24 bytes).
    Removing rds.o(i.RDSClearStk1), (24 bytes).
    Removing rds.o(i.RDSClearStk2), (24 bytes).
    Removing rds.o(i.RDSDistOver01), (28 bytes).
    Removing rds.o(i.RDSDistOver02), (44 bytes).
    Removing rds.o(i.RDSGbsSoftware), (244 bytes).
    Removing rds.o(i.RDSGbsSynchro), (92 bytes).
    Removing rds.o(i.RDSSyncStateBit), (192 bytes).
    Removing rds.o(i.RDSSyncStateBlk), (64 bytes).
    Removing rds.o(i.RDSSyndCalc), (652 bytes).
    Removing rds.o(i.RDS_BlkFail), (44 bytes).
    Removing rds.o(i.RDS_BlkOk), (72 bytes).
    Removing rds.o(i.RDS_StkPush), (72 bytes).
    Removing rds.o(.constdata), (5 bytes).
    Removing rdsapp.o(.rev16_text), (4 bytes).
    Removing rdsapp.o(.revsh_text), (4 bytes).
    Removing rdsapp.o(i.PTYSelPorc), (2 bytes).
    Removing rdsapp.o(i.ReadRdsPreMem), (232 bytes).
    Removing rdsapp.o(i.RestoreRdsSt), (60 bytes).
    Removing rdsapp.o(i.WriteRdsPreMem), (128 bytes).
    Removing rdseon.o(.rev16_text), (4 bytes).
    Removing rdseon.o(.revsh_text), (4 bytes).
    Removing tuner_elite.o(.rev16_text), (4 bytes).
    Removing tuner_elite.o(.revsh_text), (4 bytes).
    Removing tuner_elite.o(i.Elite_CmdAFStart), (48 bytes).
    Removing tuner_elite.o(i.Elite_CmdReadAFMeasure), (16 bytes).
    Removing tuner_elite.o(i.Elite_CmdStartAutoSeek), (72 bytes).
    Removing tuner_elite.o(i.Elite_CmdWriteTunerSTStatus), (52 bytes).
    Removing tuner_elite.o(i.Elite_Cmd_IBOC_Blender), (32 bytes).
    Removing tuner_elite.o(i.Elite_DSPStuckCheck), (160 bytes).
    Removing tuner_elite.o(i.HIT_CmdSetDiss), (68 bytes).
    Removing tuner_elite.o(i.Radio7786AutoScanStart), (2 bytes).
    Removing tuner_elite.o(i.TunerInit), (2 bytes).
    Removing tuner_elite.o(i.TunerReadSeekStatus), (8 bytes).
    Removing tuner_elite.o(i.TunerSetAFStart), (92 bytes).
    Removing tuner_elite.o(i.TunerStatusUpdate), (10 bytes).

457 unused section(s) (total 19781 bytes) removed from the image.

==============================================================================

Image Symbol Table

    Local Symbols

    Symbol Name                              Value     Ov Type        Size  Object(Section)

    ../clib/../cmprslib/zerorunl2.c          0x00000000   Number         0  __dczerorl2.o ABSOLUTE
    ../clib/angel/boardlib.s                 0x00000000   Number         0  boardinit2.o ABSOLUTE
    ../clib/angel/boardlib.s                 0x00000000   Number         0  boardinit3.o ABSOLUTE
    ../clib/angel/boardlib.s                 0x00000000   Number         0  boardinit1.o ABSOLUTE
    ../clib/angel/boardlib.s                 0x00000000   Number         0  boardshut.o ABSOLUTE
    ../clib/angel/handlers.s                 0x00000000   Number         0  __scatter_zi.o ABSOLUTE
    ../clib/angel/kernel.s                   0x00000000   Number         0  __rtentry.o ABSOLUTE
    ../clib/angel/kernel.s                   0x00000000   Number         0  __rtentry2.o ABSOLUTE
    ../clib/angel/kernel.s                   0x00000000   Number         0  rtexit2.o ABSOLUTE
    ../clib/angel/kernel.s                   0x00000000   Number         0  rtexit.o ABSOLUTE
    ../clib/angel/kernel.s                   0x00000000   Number         0  __rtentry4.o ABSOLUTE
    ../clib/angel/rt.s                       0x00000000   Number         0  rt_div0.o ABSOLUTE
    ../clib/angel/rt.s                       0x00000000   Number         0  aeabi_idiv0_sigfpe.o ABSOLUTE
    ../clib/angel/rt.s                       0x00000000   Number         0  aeabi_idiv0.o ABSOLUTE
    ../clib/angel/rt.s                       0x00000000   Number         0  rt_raise.o ABSOLUTE
    ../clib/angel/scatterp.s                 0x00000000   Number         0  __scatter.o ABSOLUTE
    ../clib/angel/startup.s                  0x00000000   Number         0  __main.o ABSOLUTE
    ../clib/angel/sys.s                      0x00000000   Number         0  sys_stackheap_outer.o ABSOLUTE
    ../clib/angel/sys.s                      0x00000000   Number         0  libspace.o ABSOLUTE
    ../clib/angel/sys.s                      0x00000000   Number         0  tempstk.o ABSOLUTE
    ../clib/angel/sys.s                      0x00000000   Number         0  indicate_semi.o ABSOLUTE
    ../clib/angel/sys.s                      0x00000000   Number         0  use_no_semi.o ABSOLUTE
    ../clib/angel/sysapp.c                   0x00000000   Number         0  sys_exit.o ABSOLUTE
    ../clib/angel/sysapp.c                   0x00000000   Number         0  sys_command.o ABSOLUTE
    ../clib/angel/sysapp.c                   0x00000000   Number         0  sys_wrch.o ABSOLUTE
    ../clib/armsys.c                         0x00000000   Number         0  no_argv.o ABSOLUTE
    ../clib/armsys.c                         0x00000000   Number         0  _get_argv_nomalloc.o ABSOLUTE
    ../clib/armsys.c                         0x00000000   Number         0  argv_veneer.o ABSOLUTE
    ../clib/division.s                       0x00000000   Number         0  aeabi_sdiv_div0.o ABSOLUTE
    ../clib/division.s                       0x00000000   Number         0  aeabi_sdiv.o ABSOLUTE
    ../clib/heapalloc.c                      0x00000000   Number         0  hrguard.o ABSOLUTE
    ../clib/heapaux.c                        0x00000000   Number         0  heapauxi.o ABSOLUTE
    ../clib/libinit.s                        0x00000000   Number         0  libshutdown.o ABSOLUTE
    ../clib/libinit.s                        0x00000000   Number         0  libinit.o ABSOLUTE
    ../clib/libinit.s                        0x00000000   Number         0  libshutdown2.o ABSOLUTE
    ../clib/libinit.s                        0x00000000   Number         0  libinit2.o ABSOLUTE
    ../clib/memcpset.c                       0x00000000   Number         0  rt_memcpy.o ABSOLUTE
    ../clib/memcpset.c                       0x00000000   Number         0  rt_memclr.o ABSOLUTE
    ../clib/memcpset.c                       0x00000000   Number         0  rt_memcpy.o ABSOLUTE
    ../clib/signal.c                         0x00000000   Number         0  defsig_general.o ABSOLUTE
    ../clib/signal.c                         0x00000000   Number         0  defsig_rtmem_formal.o ABSOLUTE
    ../clib/signal.c                         0x00000000   Number         0  defsig_rtmem_outer.o ABSOLUTE
    ../clib/signal.c                         0x00000000   Number         0  __raise.o ABSOLUTE
    ../clib/signal.c                         0x00000000   Number         0  defsig_rtmem_inner.o ABSOLUTE
    ../clib/signal.c                         0x00000000   Number         0  defsig_rtred_inner.o ABSOLUTE
    ../clib/signal.c                         0x00000000   Number         0  defsig_abrt_inner.o ABSOLUTE
    ../clib/signal.c                         0x00000000   Number         0  defsig_stak_inner.o ABSOLUTE
    ../clib/signal.c                         0x00000000   Number         0  defsig_exit.o ABSOLUTE
    ../clib/signal.c                         0x00000000   Number         0  defsig_pvfn_inner.o ABSOLUTE
    ../clib/signal.c                         0x00000000   Number         0  defsig_cppl_inner.o ABSOLUTE
    ../clib/signal.c                         0x00000000   Number         0  defsig_other.o ABSOLUTE
    ../clib/signal.c                         0x00000000   Number         0  defsig_fpe_formal.o ABSOLUTE
    ../clib/signal.c                         0x00000000   Number         0  defsig_fpe_outer.o ABSOLUTE
    ../clib/signal.c                         0x00000000   Number         0  defsig_fpe_inner.o ABSOLUTE
    ../clib/signal.c                         0x00000000   Number         0  defsig_segv_inner.o ABSOLUTE
    ../clib/signal.s                         0x00000000   Number         0  defsig.o ABSOLUTE
    ../clib/stdlib.c                         0x00000000   Number         0  exit.o ABSOLUTE
    ../fplib/cfplib/cmpret.c                 0x00000000   Number         0  cmpret.o ABSOLUTE
    ../fplib/cfplib/d2f.c                    0x00000000   Number         0  d2f.o ABSOLUTE
    ../fplib/cfplib/daddsub.c                0x00000000   Number         0  daddsub.o ABSOLUTE
    ../fplib/cfplib/dcmpin.c                 0x00000000   Number         0  dcmpin.o ABSOLUTE
    ../fplib/cfplib/ddiv.c                   0x00000000   Number         0  ddiv.o ABSOLUTE
    ../fplib/cfplib/dmul.c                   0x00000000   Number         0  dmul.o ABSOLUTE
    ../fplib/cfplib/f2d.c                    0x00000000   Number         0  f2d.o ABSOLUTE
    ../fplib/cfplib/ffix.c                   0x00000000   Number         0  dfixui.o ABSOLUTE
    ../fplib/cfplib/ffix.c                   0x00000000   Number         0  ffixui.o ABSOLUTE
    ../fplib/cfplib/fflt.c                   0x00000000   Number         0  dflti.o ABSOLUTE
    ../fplib/cfplib/fpinit.c                 0x00000000   Number         0  fpinit.o ABSOLUTE
    ../fplib/cfplib/nan2.c                   0x00000000   Number         0  dnan2.o ABSOLUTE
    ../fplib/cfplib/retnan.c                 0x00000000   Number         0  retnan.o ABSOLUTE
    ../fplib/drleqf6m.s                      0x00000000   Number         0  drlef.o ABSOLUTE
    ../fplib/usenofp.s                       0x00000000   Number         0  usenofp.o ABSOLUTE
    Sch\\mw_uart.c                           0x00000000   Number         0  mw_uart.o ABSOLUTE
    Sch\\sch_common.c                        0x00000000   Number         0  sch_common.o ABSOLUTE
    Sch\\sch_message.c                       0x00000000   Number         0  sch_message.o ABSOLUTE
    Sch\\sch_printf.c                        0x00000000   Number         0  sch_printf.o ABSOLUTE
    Sch\\sch_queue.c                         0x00000000   Number         0  sch_queue.o ABSOLUTE
    Sch\mw_uart.c                            0x00000000   Number         0  mw_uart.o ABSOLUTE
    Sch\sch_common.c                         0x00000000   Number         0  sch_common.o ABSOLUTE
    Sch\sch_message.c                        0x00000000   Number         0  sch_message.o ABSOLUTE
    Sch\sch_printf.c                         0x00000000   Number         0  sch_printf.o ABSOLUTE
    Sch\sch_queue.c                          0x00000000   Number         0  sch_queue.o ABSOLUTE
    TDA7786\Rds.c                            0x00000000   Number         0  rds.o ABSOLUTE
    TDA7786\RdsApp.c                         0x00000000   Number         0  rdsapp.o ABSOLUTE
    TDA7786\RdsEon.c                         0x00000000   Number         0  rdseon.o ABSOLUTE
    TDA7786\Tuner_Elite.c                    0x00000000   Number         0  tuner_elite.o ABSOLUTE
    TDA7786\\Rds.c                           0x00000000   Number         0  rds.o ABSOLUTE
    TDA7786\\RdsApp.c                        0x00000000   Number         0  rdsapp.o ABSOLUTE
    TDA7786\\RdsEon.c                        0x00000000   Number         0  rdseon.o ABSOLUTE
    TDA7786\\Tuner_Elite.c                   0x00000000   Number         0  tuner_elite.o ABSOLUTE
    TDA7786\\radio.c                         0x00000000   Number         0  radio.o ABSOLUTE
    TDA7786\radio.c                          0x00000000   Number         0  radio.o ABSOLUTE
    dc.s                                     0x00000000   Number         0  dc.o ABSOLUTE
    lib\\stm32f0xx_can.c                     0x00000000   Number         0  stm32f0xx_can.o ABSOLUTE
    lib\\stm32f0xx_exti.c                    0x00000000   Number         0  stm32f0xx_exti.o ABSOLUTE
    lib\\stm32f0xx_gpio.c                    0x00000000   Number         0  stm32f0xx_gpio.o ABSOLUTE
    lib\\stm32f0xx_misc.c                    0x00000000   Number         0  stm32f0xx_misc.o ABSOLUTE
    lib\\stm32f0xx_pwr.c                     0x00000000   Number         0  stm32f0xx_pwr.o ABSOLUTE
    lib\\stm32f0xx_rcc.c                     0x00000000   Number         0  stm32f0xx_rcc.o ABSOLUTE
    lib\\stm32f0xx_rtc.c                     0x00000000   Number         0  stm32f0xx_rtc.o ABSOLUTE
    lib\\stm32f0xx_syscfg.c                  0x00000000   Number         0  stm32f0xx_syscfg.o ABSOLUTE
    lib\\stm32f0xx_tim.c                     0x00000000   Number         0  stm32f0xx_tim.o ABSOLUTE
    lib\\stm32f0xx_usart.c                   0x00000000   Number         0  stm32f0xx_usart.o ABSOLUTE
    lib\startup_stm32f072xb.s                0x00000000   Number         0  startup_stm32f072xb.o ABSOLUTE
    lib\stm32f0xx_can.c                      0x00000000   Number         0  stm32f0xx_can.o ABSOLUTE
    lib\stm32f0xx_exti.c                     0x00000000   Number         0  stm32f0xx_exti.o ABSOLUTE
    lib\stm32f0xx_gpio.c                     0x00000000   Number         0  stm32f0xx_gpio.o ABSOLUTE
    lib\stm32f0xx_misc.c                     0x00000000   Number         0  stm32f0xx_misc.o ABSOLUTE
    lib\stm32f0xx_pwr.c                      0x00000000   Number         0  stm32f0xx_pwr.o ABSOLUTE
    lib\stm32f0xx_rcc.c                      0x00000000   Number         0  stm32f0xx_rcc.o ABSOLUTE
    lib\stm32f0xx_rtc.c                      0x00000000   Number         0  stm32f0xx_rtc.o ABSOLUTE
    lib\stm32f0xx_syscfg.c                   0x00000000   Number         0  stm32f0xx_syscfg.o ABSOLUTE
    lib\stm32f0xx_tim.c                      0x00000000   Number         0  stm32f0xx_tim.o ABSOLUTE
    lib\stm32f0xx_usart.c                    0x00000000   Number         0  stm32f0xx_usart.o ABSOLUTE
    source\Irda.c                            0x00000000   Number         0  irda.o ABSOLUTE
    source\RTC_Time.c                        0x00000000   Number         0  rtc_time.o ABSOLUTE
    source\\Irda.c                           0x00000000   Number         0  irda.o ABSOLUTE
    source\\RTC_Time.c                       0x00000000   Number         0  rtc_time.o ABSOLUTE
    source\\app_can.c                        0x00000000   Number         0  app_can.o ABSOLUTE
    source\\armuart.c                        0x00000000   Number         0  armuart.o ABSOLUTE
    source\\bsp.c                            0x00000000   Number         0  bsp.o ABSOLUTE
    source\\core.c                           0x00000000   Number         0  core.o ABSOLUTE
    source\\detection.c                      0x00000000   Number         0  detection.o ABSOLUTE
    source\\drive.c                          0x00000000   Number         0  drive.o ABSOLUTE
    source\\flash_if.c                       0x00000000   Number         0  flash_if.o ABSOLUTE
    source\\key.c                            0x00000000   Number         0  key.o ABSOLUTE
    source\\main.c                           0x00000000   Number         0  main.o ABSOLUTE
    source\\mw_can.c                         0x00000000   Number         0  mw_can.o ABSOLUTE
    source\\stm32f0xx_it.c                   0x00000000   Number         0  stm32f0xx_it.o ABSOLUTE
    source\\swc.c                            0x00000000   Number         0  swc.o ABSOLUTE
    source\\system_stm32f0xx.c               0x00000000   Number         0  system_stm32f0xx.o ABSOLUTE
    source\\usart1.c                         0x00000000   Number         0  usart1.o ABSOLUTE
    source\\usart4.c                         0x00000000   Number         0  usart4.o ABSOLUTE
    source\app_can.c                         0x00000000   Number         0  app_can.o ABSOLUTE
    source\armuart.c                         0x00000000   Number         0  armuart.o ABSOLUTE
    source\bsp.c                             0x00000000   Number         0  bsp.o ABSOLUTE
    source\core.c                            0x00000000   Number         0  core.o ABSOLUTE
    source\detection.c                       0x00000000   Number         0  detection.o ABSOLUTE
    source\drive.c                           0x00000000   Number         0  drive.o ABSOLUTE
    source\flash_if.c                        0x00000000   Number         0  flash_if.o ABSOLUTE
    source\key.c                             0x00000000   Number         0  key.o ABSOLUTE
    source\main.c                            0x00000000   Number         0  main.o ABSOLUTE
    source\mw_can.c                          0x00000000   Number         0  mw_can.o ABSOLUTE
    source\stm32f0xx_it.c                    0x00000000   Number         0  stm32f0xx_it.o ABSOLUTE
    source\swc.c                             0x00000000   Number         0  swc.o ABSOLUTE
    source\system_stm32f0xx.c                0x00000000   Number         0  system_stm32f0xx.o ABSOLUTE
    source\usart1.c                          0x00000000   Number         0  usart1.o ABSOLUTE
    source\usart4.c                          0x00000000   Number         0  usart4.o ABSOLUTE
    RESET                                    0x08001800   Section      192  startup_stm32f072xb.o(RESET)
    !!!main                                  0x080018c0   Section        8  __main.o(!!!main)
    !!!scatter                               0x080018c8   Section       60  __scatter.o(!!!scatter)
    !!handler_zi                             0x08001904   Section       28  __scatter_zi.o(!!handler_zi)
    .ARM.Collect$$libinit$$00000000          0x08001920   Section        2  libinit.o(.ARM.Collect$$libinit$$00000000)
    .ARM.Collect$$libinit$$00000002          0x08001922   Section        0  libinit2.o(.ARM.Collect$$libinit$$00000002)
    .ARM.Collect$$libinit$$00000004          0x08001922   Section        0  libinit2.o(.ARM.Collect$$libinit$$00000004)
    .ARM.Collect$$libinit$$0000000A          0x08001922   Section        0  libinit2.o(.ARM.Collect$$libinit$$0000000A)
    .ARM.Collect$$libinit$$0000000C          0x08001922   Section        0  libinit2.o(.ARM.Collect$$libinit$$0000000C)
    .ARM.Collect$$libinit$$0000000E          0x08001922   Section        0  libinit2.o(.ARM.Collect$$libinit$$0000000E)
    .ARM.Collect$$libinit$$00000011          0x08001922   Section        0  libinit2.o(.ARM.Collect$$libinit$$00000011)
    .ARM.Collect$$libinit$$00000013          0x08001922   Section        0  libinit2.o(.ARM.Collect$$libinit$$00000013)
    .ARM.Collect$$libinit$$00000015          0x08001922   Section        0  libinit2.o(.ARM.Collect$$libinit$$00000015)
    .ARM.Collect$$libinit$$00000017          0x08001922   Section        0  libinit2.o(.ARM.Collect$$libinit$$00000017)
    .ARM.Collect$$libinit$$00000019          0x08001922   Section        0  libinit2.o(.ARM.Collect$$libinit$$00000019)
    .ARM.Collect$$libinit$$0000001B          0x08001922   Section        0  libinit2.o(.ARM.Collect$$libinit$$0000001B)
    .ARM.Collect$$libinit$$0000001D          0x08001922   Section        0  libinit2.o(.ARM.Collect$$libinit$$0000001D)
    .ARM.Collect$$libinit$$0000001F          0x08001922   Section        0  libinit2.o(.ARM.Collect$$libinit$$0000001F)
    .ARM.Collect$$libinit$$00000021          0x08001922   Section        0  libinit2.o(.ARM.Collect$$libinit$$00000021)
    .ARM.Collect$$libinit$$00000023          0x08001922   Section        0  libinit2.o(.ARM.Collect$$libinit$$00000023)
    .ARM.Collect$$libinit$$00000025          0x08001922   Section        0  libinit2.o(.ARM.Collect$$libinit$$00000025)
    .ARM.Collect$$libinit$$0000002C          0x08001922   Section        0  libinit2.o(.ARM.Collect$$libinit$$0000002C)
    .ARM.Collect$$libinit$$0000002E          0x08001922   Section        0  libinit2.o(.ARM.Collect$$libinit$$0000002E)
    .ARM.Collect$$libinit$$00000030          0x08001922   Section        0  libinit2.o(.ARM.Collect$$libinit$$00000030)
    .ARM.Collect$$libinit$$00000032          0x08001922   Section        0  libinit2.o(.ARM.Collect$$libinit$$00000032)
    .ARM.Collect$$libinit$$00000033          0x08001922   Section        2  libinit2.o(.ARM.Collect$$libinit$$00000033)
    .ARM.Collect$$libshutdown$$00000000      0x08001924   Section        2  libshutdown.o(.ARM.Collect$$libshutdown$$00000000)
    .ARM.Collect$$libshutdown$$00000002      0x08001926   Section        0  libshutdown2.o(.ARM.Collect$$libshutdown$$00000002)
    .ARM.Collect$$libshutdown$$00000004      0x08001926   Section        0  libshutdown2.o(.ARM.Collect$$libshutdown$$00000004)
    .ARM.Collect$$libshutdown$$00000007      0x08001926   Section        0  libshutdown2.o(.ARM.Collect$$libshutdown$$00000007)
    .ARM.Collect$$libshutdown$$0000000A      0x08001926   Section        0  libshutdown2.o(.ARM.Collect$$libshutdown$$0000000A)
    .ARM.Collect$$libshutdown$$0000000C      0x08001926   Section        0  libshutdown2.o(.ARM.Collect$$libshutdown$$0000000C)
    .ARM.Collect$$libshutdown$$0000000F      0x08001926   Section        0  libshutdown2.o(.ARM.Collect$$libshutdown$$0000000F)
    .ARM.Collect$$libshutdown$$00000010      0x08001926   Section        2  libshutdown2.o(.ARM.Collect$$libshutdown$$00000010)
    .ARM.Collect$$rtentry$$00000000          0x08001928   Section        0  __rtentry.o(.ARM.Collect$$rtentry$$00000000)
    .ARM.Collect$$rtentry$$00000002          0x08001928   Section        0  __rtentry2.o(.ARM.Collect$$rtentry$$00000002)
    .ARM.Collect$$rtentry$$00000004          0x08001928   Section        6  __rtentry4.o(.ARM.Collect$$rtentry$$00000004)
    .ARM.Collect$$rtentry$$00000009          0x0800192e   Section        0  __rtentry2.o(.ARM.Collect$$rtentry$$00000009)
    .ARM.Collect$$rtentry$$0000000A          0x0800192e   Section        4  __rtentry2.o(.ARM.Collect$$rtentry$$0000000A)
    .ARM.Collect$$rtentry$$0000000C          0x08001932   Section        0  __rtentry2.o(.ARM.Collect$$rtentry$$0000000C)
    .ARM.Collect$$rtentry$$0000000D          0x08001932   Section        8  __rtentry2.o(.ARM.Collect$$rtentry$$0000000D)
    .ARM.Collect$$rtexit$$00000000           0x0800193a   Section        2  rtexit.o(.ARM.Collect$$rtexit$$00000000)
    .ARM.Collect$$rtexit$$00000002           0x0800193c   Section        0  rtexit2.o(.ARM.Collect$$rtexit$$00000002)
    .ARM.Collect$$rtexit$$00000003           0x0800193c   Section        4  rtexit2.o(.ARM.Collect$$rtexit$$00000003)
    .ARM.Collect$$rtexit$$00000004           0x08001940   Section        6  rtexit2.o(.ARM.Collect$$rtexit$$00000004)
    .emb_text                                0x08001948   Section       56  rt_memcpy.o(.emb_text)
    .text                                    0x08001980   Section       56  startup_stm32f072xb.o(.text)
    .text                                    0x080019b8   Section        0  rt_memclr.o(.text)
    .text                                    0x080019f8   Section      346  aeabi_sdiv.o(.text)
    .text                                    0x08001b52   Section        0  heapauxi.o(.text)
    .text                                    0x08001b58   Section        0  daddsub.o(.text)
    _dadd1                                   0x08001b59   Thumb Code   290  daddsub.o(.text)
    _dsub1                                   0x08001c7b   Thumb Code   470  daddsub.o(.text)
    .text                                    0x08001eb0   Section        0  ddiv.o(.text)
    .text                                    0x080022f8   Section        0  dfixui.o(.text)
    .text                                    0x08002340   Section        0  dflti.o(.text)
    .text                                    0x08002398   Section        0  dmul.o(.text)
    .text                                    0x080025e0   Section       62  sys_stackheap_outer.o(.text)
    .text                                    0x0800261e   Section        0  exit.o(.text)
    .text                                    0x08002630   Section        8  libspace.o(.text)
    .text                                    0x08002638   Section        0  sys_exit.o(.text)
    .text                                    0x08002644   Section        2  use_no_semi.o(.text)
    .text                                    0x08002646   Section        0  indicate_semi.o(.text)
    .text                                    0x08002646   Section        0  __dczerorl2.o(.text)
    i.ADC_GetData                            0x0800269c   Section        0  swc.o(i.ADC_GetData)
    i.AD_SW2_Key_Scan                        0x080026d8   Section        0  swc.o(i.AD_SW2_Key_Scan)
    i.AFCheckInit                            0x08002794   Section        0  tuner_elite.o(i.AFCheckInit)
    i.ASProc                                 0x08002860   Section        0  radio.o(i.ASProc)
    i.ATProc                                 0x08003248   Section        0  radio.o(i.ATProc)
    i.AdcDeinit                              0x0800338c   Section        0  bsp.o(i.AdcDeinit)
    i.AdcInit                                0x080033d0   Section        0  bsp.o(i.AdcInit)
    i.AfDetProc                              0x0800349c   Section        0  rds.o(i.AfDetProc)
    i.AnalysisCanStr                         0x08003774   Section        0  usart4.o(i.AnalysisCanStr)
    i.ArmUartInit                            0x080037cc   Section        0  armuart.o(i.ArmUartInit)
    i.BkupStatNum                            0x08003814   Section        0  radio.o(i.BkupStatNum)
    i.BspInit                                0x08003838   Section        0  bsp.o(i.BspInit)
    i.Bsp_UART_Init                          0x08003880   Section        0  bsp.o(i.Bsp_UART_Init)
    i.CAN_ClearITPendingBit                  0x080038a4   Section        0  stm32f0xx_can.o(i.CAN_ClearITPendingBit)
    i.CAN_Receive                            0x08003960   Section        0  stm32f0xx_can.o(i.CAN_Receive)
    i.CAN_Transmit                           0x08003a66   Section        0  stm32f0xx_can.o(i.CAN_Transmit)
    i.CEC_CAN_IRQHandler                     0x08003b9c   Section        0  stm32f0xx_it.o(i.CEC_CAN_IRQHandler)
    i.CanPutToBuf                            0x08003bf8   Section        0  mw_can.o(i.CanPutToBuf)
    i.Can_Rx_DataPro                         0x08003c28   Section        0  mw_can.o(i.Can_Rx_DataPro)
    i.ChkNoStat                              0x08003c3c   Section        0  radio.o(i.ChkNoStat)
    i.ChkStatExist                           0x08003c64   Section        0  radio.o(i.ChkStatExist)
    i.Ck7786StatProc                         0x08003ca0   Section        0  radio.o(i.Ck7786StatProc)
    i.CloseExternDevice                      0x08003ef4   Section        0  drive.o(i.CloseExternDevice)
    i.ClrKeyInfo                             0x08003fd8   Section        0  swc.o(i.ClrKeyInfo)
    i.ClrRDSParms                            0x08003fec   Section        0  rdsapp.o(i.ClrRDSParms)
    i.CoreAccProcess                         0x08004074   Section        0  core.o(i.CoreAccProcess)
    i.CoreFastArm2update                     0x080044a8   Section        0  core.o(i.CoreFastArm2update)
    i.CoreFastBack                           0x08004548   Section        0  core.o(i.CoreFastBack)
    i.CoreFastPanel                          0x080045c8   Section        0  core.o(i.CoreFastPanel)
    i.CoreInit                               0x08004608   Section        0  core.o(i.CoreInit)
    i.CorePowerProcess                       0x0800463c   Section        0  core.o(i.CorePowerProcess)
    i.CoreTime                               0x08004850   Section        0  core.o(i.CoreTime)
    i.CoreWakeupDetect                       0x0800488c   Section        0  detection.o(i.CoreWakeupDetect)
    i.DetecAccSignal                         0x080048f8   Section        0  detection.o(i.DetecAccSignal)
    i.DetecBackSight                         0x08004964   Section        0  detection.o(i.DetecBackSight)
    i.DetecBat                               0x08004a24   Section        0  detection.o(i.DetecBat)
    i.DetecBrakeSight                        0x08004b64   Section        0  detection.o(i.DetecBrakeSight)
    i.DetecCarILL                            0x08004be0   Section        0  detection.o(i.DetecCarILL)
    i.DetectInit                             0x08004c5c   Section        0  detection.o(i.DetectInit)
    i.DetectSignal                           0x08004cfc   Section        0  detection.o(i.DetectSignal)
    i.Disable_RDS_Int                        0x08004d30   Section        0  tuner_elite.o(i.Disable_RDS_Int)
    i.DriveInit                              0x08004d7c   Section        0  drive.o(i.DriveInit)
    i.EXTI0_1_IRQHandler                     0x08004e14   Section        0  stm32f0xx_it.o(i.EXTI0_1_IRQHandler)
    i.EXTI4_15_IRQHandler                    0x08004e40   Section        0  stm32f0xx_it.o(i.EXTI4_15_IRQHandler)
    i.EXTI_ClearITPendingBit                 0x08004e7c   Section        0  stm32f0xx_exti.o(i.EXTI_ClearITPendingBit)
    i.EXTI_GetITStatus                       0x08004e88   Section        0  stm32f0xx_exti.o(i.EXTI_GetITStatus)
    i.EXTI_Init                              0x08004ea4   Section        0  stm32f0xx_exti.o(i.EXTI_Init)
    i.EXTI_StructInit                        0x08004f2c   Section        0  stm32f0xx_exti.o(i.EXTI_StructInit)
    i.Elite_BootcodeDownload                 0x08004f3c   Section        0  tuner_elite.o(i.Elite_BootcodeDownload)
    i.Elite_CmdAFCheck                       0x08004fa8   Section        0  tuner_elite.o(i.Elite_CmdAFCheck)
    i.Elite_CmdAFEnd                         0x08004fd8   Section        0  tuner_elite.o(i.Elite_CmdAFEnd)
    i.Elite_CmdChangeAFFreq                  0x08005008   Section        0  tuner_elite.o(i.Elite_CmdChangeAFFreq)
    i.Elite_CmdChangeBand                    0x08005038   Section        0  tuner_elite.o(i.Elite_CmdChangeBand)
    i.Elite_CmdChangeFreq                    0x080050dc   Section        0  tuner_elite.o(i.Elite_CmdChangeFreq)
    i.Elite_CmdMuSICA                        0x08005144   Section        0  tuner_elite.o(i.Elite_CmdMuSICA)
    i.Elite_CmdReadAFQual                    0x08005168   Section        0  tuner_elite.o(i.Elite_CmdReadAFQual)
    i.Elite_CmdReadMem                       0x080051a0   Section        0  tuner_elite.o(i.Elite_CmdReadMem)
    i.Elite_CmdReadSeekStatus                0x08005224   Section        0  tuner_elite.o(i.Elite_CmdReadSeekStatus)
    i.Elite_CmdReadTDSR                      0x08005598   Section        0  tuner_elite.o(i.Elite_CmdReadTDSR)
    i.Elite_CmdReadTunerStatus               0x08005648   Section        0  tuner_elite.o(i.Elite_CmdReadTunerStatus)
    i.Elite_CmdSeekEnd                       0x080056dc   Section        0  tuner_elite.o(i.Elite_CmdSeekEnd)
    i.Elite_CmdSetFEReg                      0x08005700   Section        0  tuner_elite.o(i.Elite_CmdSetFEReg)
    i.Elite_CmdSetSeekTH                     0x080058a0   Section        0  tuner_elite.o(i.Elite_CmdSetSeekTH)
    i.Elite_CmdStartManualSeek               0x08005998   Section        0  tuner_elite.o(i.Elite_CmdStartManualSeek)
    i.Elite_CmdStartup                       0x080059c8   Section        0  tuner_elite.o(i.Elite_CmdStartup)
    i.Elite_CmdWriteBeCoeff                  0x08005a24   Section        0  tuner_elite.o(i.Elite_CmdWriteBeCoeff)
    i.Elite_CmdWriteMem                      0x08005c48   Section        0  tuner_elite.o(i.Elite_CmdWriteMem)
    i.Elite_CmdWriteRead                     0x08005cec   Section        0  tuner_elite.o(i.Elite_CmdWriteRead)
    i.Elite_DirectRead                       0x08005d48   Section        0  tuner_elite.o(i.Elite_DirectRead)
    i.Elite_DirectWrite                      0x08005efc   Section        0  tuner_elite.o(i.Elite_DirectWrite)
    i.Elite_GetAverageQuality                0x08006064   Section        0  tuner_elite.o(i.Elite_GetAverageQuality)
    i.Enable_RDS_Int                         0x08006190   Section        0  tuner_elite.o(i.Enable_RDS_Int)
    i.EonTADetProc                           0x08006208   Section        0  rdseon.o(i.EonTADetProc)
    i.FLASH_if_ClearFlag                     0x080064e4   Section        0  flash_if.o(i.FLASH_if_ClearFlag)
    i.FLASH_if_ErasePage                     0x080064f0   Section        0  flash_if.o(i.FLASH_if_ErasePage)
    i.FLASH_if_Init                          0x0800653c   Section        0  flash_if.o(i.FLASH_if_Init)
    i.FLASH_if_Lock                          0x0800654c   Section        0  flash_if.o(i.FLASH_if_Lock)
    i.FLASH_if_Readhalfword                  0x08006560   Section        0  flash_if.o(i.FLASH_if_Readhalfword)
    i.FLASH_if_Unlock                        0x08006568   Section        0  flash_if.o(i.FLASH_if_Unlock)
    i.FLASH_if_WaitForLastOperation          0x08006580   Section        0  flash_if.o(i.FLASH_if_WaitForLastOperation)
    i.FLASH_if_Writehalfword                 0x080065c4   Section        0  flash_if.o(i.FLASH_if_Writehalfword)
    i.GPIO_Init                              0x08006604   Section        0  stm32f0xx_gpio.o(i.GPIO_Init)
    i.GPIO_PinAFConfig                       0x08006694   Section        0  stm32f0xx_gpio.o(i.GPIO_PinAFConfig)
    i.GalaDeInit                             0x080066d8   Section        0  bsp.o(i.GalaDeInit)
    i.GalaInit                               0x080066da   Section        0  bsp.o(i.GalaInit)
    i.GetAverage_U16                         0x080066de   Section        0  sch_common.o(i.GetAverage_U16)
    i.GetKeyData                             0x08006704   Section        0  swc.o(i.GetKeyData)
    i.GetKeyData2                            0x08006798   Section        0  swc.o(i.GetKeyData2)
    i.GetKeyNum                              0x0800682c   Section        0  swc.o(i.GetKeyNum)
    i.GetMaxStat                             0x08006854   Section        0  radio.o(i.GetMaxStat)
    i.GetMessage                             0x0800686c   Section        0  sch_message.o(i.GetMessage)
    i.GetRadFreOctData                       0x08006888   Section        0  radio.o(i.GetRadFreOctData)
    i.GetRadPlayFre                          0x0800690c   Section        0  radio.o(i.GetRadPlayFre)
    i.GetRdsAFFreq                           0x080069dc   Section        0  radio.o(i.GetRdsAFFreq)
    i.GetSW2StudyKeyNum                      0x08006a40   Section        0  swc.o(i.GetSW2StudyKeyNum)
    i.GetSWStudyKeyNum                       0x08006a64   Section        0  swc.o(i.GetSWStudyKeyNum)
    i.GpioInit                               0x08006a88   Section        0  bsp.o(i.GpioInit)
    i.HITPushToLast                          0x08006b50   Section        0  tuner_elite.o(i.HITPushToLast)
    i.HIT_ForeceMono                         0x08006ca8   Section        0  tuner_elite.o(i.HIT_ForeceMono)
    i.HIT_ForeceMute                         0x08006d14   Section        0  tuner_elite.o(i.HIT_ForeceMute)
    i.HardFault_Handler                      0x08006d7c   Section        0  stm32f0xx_it.o(i.HardFault_Handler)
    i.HasAcc                                 0x08006d80   Section        0  detection.o(i.HasAcc)
    i.I2C3Ack                                0x08006d98   Section        0  tuner_elite.o(i.I2C3Ack)
    i.I2C3Ack2                               0x08006df8   Section        0  tuner_elite.o(i.I2C3Ack2)
    i.I2C3In8Bit                             0x08006e78   Section        0  tuner_elite.o(i.I2C3In8Bit)
    i.I2C3Out8Bit                            0x08006ef4   Section        0  tuner_elite.o(i.I2C3Out8Bit)
    i.I2C3Start                              0x08006fcc   Section        0  tuner_elite.o(i.I2C3Start)
    i.I2C3Stop                               0x08007018   Section        0  tuner_elite.o(i.I2C3Stop)
    i.I2C_delay                              0x08007064   Section        0  tuner_elite.o(i.I2C_delay)
    i.IR_EXTI7_Config                        0x08007072   Section        0  irda.o(i.IR_EXTI7_Config)
    i.IR_EXTI8_Config                        0x080070e4   Section        0  irda.o(i.IR_EXTI8_Config)
    i.InitAMPresetStat                       0x08007158   Section        0  radio.o(i.InitAMPresetStat)
    i.InitFMPresetStat                       0x08007240   Section        0  radio.o(i.InitFMPresetStat)
    i.InitPresetStat                         0x08007330   Section        0  radio.o(i.InitPresetStat)
    i.IrdaDeInit                             0x0800733c   Section        0  irda.o(i.IrdaDeInit)
    i.IrdaInit                               0x0800739c   Section        0  irda.o(i.IrdaInit)
    i.IsInArray_U8                           0x080073ac   Section        0  sch_common.o(i.IsInArray_U8)
    i.IsInData                               0x080073ce   Section        0  sch_common.o(i.IsInData)
    i.IsLeapYear                             0x080073ec   Section        0  drive.o(i.IsLeapYear)
    i.KeyInit                                0x08007430   Section        0  key.o(i.KeyInit)
    i.KeyScan                                0x0800745c   Section        0  swc.o(i.KeyScan)
    i.KeyTimer                               0x080074d8   Section        0  swc.o(i.KeyTimer)
    i.Key_Scan_AD                            0x08007530   Section        0  swc.o(i.Key_Scan_AD)
    i.Key_Scan_AD2                           0x080075c0   Section        0  swc.o(i.Key_Scan_AD2)
    i.M2C_TxService                          0x08007650   Section        0  app_can.o(i.M2C_TxService)
    i.McuIapStart                            0x080077a4   Section        0  bsp.o(i.McuIapStart)
    i.McuPowerDown                           0x0800787c   Section        0  drive.o(i.McuPowerDown)
    i.MeasureAfList                          0x08007914   Section        0  rds.o(i.MeasureAfList)
    i.MessageARMPoweroff                     0x08007a94   Section        0  core.o(i.MessageARMPoweroff)
    i.MuteOff                                0x08007ad0   Section        0  drive.o(i.MuteOff)
    i.MuteOn                                 0x08007b64   Section        0  drive.o(i.MuteOn)
    i.MuteTimeset                            0x08007bc0   Section        0  drive.o(i.MuteTimeset)
    i.NMI_Handler                            0x08007c38   Section        0  stm32f0xx_it.o(i.NMI_Handler)
    i.NVIC_Init                              0x08007c3c   Section        0  stm32f0xx_misc.o(i.NVIC_Init)
    i.PSProc                                 0x08007cac   Section        0  radio.o(i.PSProc)
    i.PSStationChk                           0x08008098   Section        0  radio.o(i.PSStationChk)
    i.PWM_DeInit                             0x0800810c   Section        0  bsp.o(i.PWM_DeInit)
    i.PWM_Init                               0x0800811c   Section        0  bsp.o(i.PWM_Init)
    i.PendSV_Handler                         0x0800811e   Section        0  stm32f0xx_it.o(i.PendSV_Handler)
    i.PiSeekProc                             0x08008120   Section        0  rds.o(i.PiSeekProc)
    i.PostMessage                            0x080081e0   Section        0  sch_message.o(i.PostMessage)
    i.Print_To_Buf                           0x08008204   Section        0  sch_printf.o(i.Print_To_Buf)
    Print_To_Buf                             0x08008205   Thumb Code    22  sch_printf.o(i.Print_To_Buf)
    i.Printf                                 0x0800821a   Section        0  sch_printf.o(i.Printf)
    i.ProcessArmCommand                      0x08008300   Section        0  armuart.o(i.ProcessArmCommand)
    i.ProcessArmkey                          0x08008c78   Section        0  core.o(i.ProcessArmkey)
    i.ProcessCore                            0x08009138   Section        0  core.o(i.ProcessCore)
    i.ProcessDate                            0x0800914c   Section        0  drive.o(i.ProcessDate)
    i.ProcessDetect                          0x08009224   Section        0  detection.o(i.ProcessDetect)
    i.ProcessMute                            0x080092a0   Section        0  drive.o(i.ProcessMute)
    i.ProcessPanelKey                        0x0800934c   Section        0  key.o(i.ProcessPanelKey)
    i.ProcessSwc                             0x080093ac   Section        0  swc.o(i.ProcessSwc)
    i.ProcessUart2                           0x080093b4   Section        0  armuart.o(i.ProcessUart2)
    i.ProcessVM4Can                          0x0800950c   Section        0  usart4.o(i.ProcessVM4Can)
    i.ProcessVMCan                           0x080095b8   Section        0  usart1.o(i.ProcessVMCan)
    i.PtySeekProc                            0x0800962c   Section        0  rds.o(i.PtySeekProc)
    i.Queue_In                               0x0800978c   Section        0  sch_queue.o(i.Queue_In)
    i.Queue_Init                             0x080097ea   Section        0  sch_queue.o(i.Queue_Init)
    i.Queue_Out                              0x08009808   Section        0  sch_queue.o(i.Queue_Out)
    i.RCC_AHBPeriphClockCmd                  0x08009864   Section        0  stm32f0xx_rcc.o(i.RCC_AHBPeriphClockCmd)
    i.RCC_APB1PeriphClockCmd                 0x08009884   Section        0  stm32f0xx_rcc.o(i.RCC_APB1PeriphClockCmd)
    i.RCC_APB1PeriphResetCmd                 0x080098a4   Section        0  stm32f0xx_rcc.o(i.RCC_APB1PeriphResetCmd)
    i.RCC_APB2PeriphClockCmd                 0x080098c4   Section        0  stm32f0xx_rcc.o(i.RCC_APB2PeriphClockCmd)
    i.RCC_APB2PeriphResetCmd                 0x080098e4   Section        0  stm32f0xx_rcc.o(i.RCC_APB2PeriphResetCmd)
    i.RCC_GetClocksFreq                      0x08009904   Section        0  stm32f0xx_rcc.o(i.RCC_GetClocksFreq)
    i.RCC_USARTCLKConfig                     0x08009af4   Section        0  stm32f0xx_rcc.o(i.RCC_USARTCLKConfig)
    i.RDSAfInit                              0x08009b28   Section        0  rds.o(i.RDSAfInit)
    i.RDSAfInitHeader                        0x08009b5c   Section        0  rds.o(i.RDSAfInitHeader)
    i.RDSDataClear                           0x08009b7c   Section        0  rds.o(i.RDSDataClear)
    i.RDSDataInit                            0x08009c6c   Section        0  tuner_elite.o(i.RDSDataInit)
    i.RDSDataInitPlus                        0x08009dbc   Section        0  tuner_elite.o(i.RDSDataInitPlus)
    i.RDSEonAfInit                           0x08009dd8   Section        0  rdseon.o(i.RDSEonAfInit)
    i.RDSEonAfInsert                         0x08009dfc   Section        0  rdseon.o(i.RDSEonAfInsert)
    i.RDSEonElntSearch                       0x08009e58   Section        0  rdseon.o(i.RDSEonElntSearch)
    i.RDSEonInit                             0x08009efc   Section        0  rdseon.o(i.RDSEonInit)
    i.RDSEonPiAfInsert                       0x08009f80   Section        0  rdseon.o(i.RDSEonPiAfInsert)
    i.RDSEonTaSwitchBack                     0x0800a054   Section        0  rdseon.o(i.RDSEonTaSwitchBack)
    i.RDSExtAf                               0x0800a074   Section        0  rds.o(i.RDSExtAf)
    i.RDSExtAfHeader                         0x0800a174   Section        0  rds.o(i.RDSExtAfHeader)
    i.RDSExtAfMethodA                        0x0800a1d0   Section        0  rds.o(i.RDSExtAfMethodA)
    i.RDSExtAfMethodB                        0x0800a2bc   Section        0  rds.o(i.RDSExtAfMethodB)
    i.RDSExtBkCRT                            0x0800a470   Section        0  rds.o(i.RDSExtBkCRT)
    i.RDSExtBkDRT                            0x0800a710   Section        0  rds.o(i.RDSExtBkDRT)
    i.RDSExtBlkB                             0x0800aa44   Section        0  rds.o(i.RDSExtBlkB)
    i.RDSExtBlkC                             0x0800ab78   Section        0  rds.o(i.RDSExtBlkC)
    i.RDSExtBlkD                             0x0800ac54   Section        0  rds.o(i.RDSExtBlkD)
    i.RDSExtCT                               0x0800ad14   Section        0  rds.o(i.RDSExtCT)
    i.RDSExtEonAf                            0x0800aec4   Section        0  rdseon.o(i.RDSExtEonAf)
    i.RDSExtEonTa                            0x0800af00   Section        0  rdseon.o(i.RDSExtEonTa)
    i.RDSExtEonTaPi                          0x0800af58   Section        0  rdseon.o(i.RDSExtEonTaPi)
    i.RDSExtPi                               0x0800b03c   Section        0  rds.o(i.RDSExtPi)
    i.RDSExtPs                               0x0800b1c0   Section        0  rds.o(i.RDSExtPs)
    i.RDSExtPty                              0x0800b410   Section        0  rds.o(i.RDSExtPty)
    i.RDSExtTa                               0x0800b5d0   Section        0  rds.o(i.RDSExtTa)
    i.RDSExtTp                               0x0800b758   Section        0  rds.o(i.RDSExtTp)
    i.RDSFetchBlockData                      0x0800b838   Section        0  tuner_elite.o(i.RDSFetchBlockData)
    i.RDSFlagPINew                           0x0800bcfc   Section        0  tuner_elite.o(i.RDSFlagPINew)
    i.RDSFmFreqChange                        0x0800bd20   Section        0  rdsapp.o(i.RDSFmFreqChange)
    i.RDSGetDataBlock                        0x0800bee4   Section        0  tuner_elite.o(i.RDSGetDataBlock)
    i.RDSInit                                0x0800befc   Section        0  rdsapp.o(i.RDSInit)
    i.RDSInsertAF                            0x0800bf84   Section        0  rds.o(i.RDSInsertAF)
    i.RDSInt                                 0x0800c038   Section        0  tuner_elite.o(i.RDSInt)
    i.RDSSetBlockData                        0x0800c04c   Section        0  tuner_elite.o(i.RDSSetBlockData)
    i.RDSSetDataBlock                        0x0800c220   Section        0  tuner_elite.o(i.RDSSetDataBlock)
    i.RDSStart                               0x0800c248   Section        0  rds.o(i.RDSStart)
    i.RDSStop                                0x0800c278   Section        0  rds.o(i.RDSStop)
    i.RDSTimerInit                           0x0800c290   Section        0  rdsapp.o(i.RDSTimerInit)
    i.RTC_Bcd2ToByte                         0x0800c33c   Section        0  stm32f0xx_rtc.o(i.RTC_Bcd2ToByte)
    RTC_Bcd2ToByte                           0x0800c33d   Thumb Code    26  stm32f0xx_rtc.o(i.RTC_Bcd2ToByte)
    i.RTC_ClearITPendingBit                  0x0800c358   Section        0  stm32f0xx_rtc.o(i.RTC_ClearITPendingBit)
    i.RTC_GetITStatus                        0x0800c37c   Section        0  stm32f0xx_rtc.o(i.RTC_GetITStatus)
    i.RTC_GetTime                            0x0800c3c8   Section        0  stm32f0xx_rtc.o(i.RTC_GetTime)
    i.RTC_IRQHandler                         0x0800c424   Section        0  stm32f0xx_it.o(i.RTC_IRQHandler)
    i.RTC_TimeShow                           0x0800c450   Section        0  rtc_time.o(i.RTC_TimeShow)
    i.RadDpUpdate                            0x0800c4a0   Section        0  radio.o(i.RadDpUpdate)
    i.RadKyAnaly                             0x0800c4a4   Section        0  radio.o(i.RadKyAnaly)
    i.RadSetToDl500ms                        0x0800d1fc   Section        0  radio.o(i.RadSetToDl500ms)
    i.Radio7786Poweron                       0x0800d27c   Section        0  radio.o(i.Radio7786Poweron)
    i.Radio7786SetFreq                       0x0800d288   Section        0  tuner_elite.o(i.Radio7786SetFreq)
    i.RadioBreak                             0x0800d294   Section        0  radio.o(i.RadioBreak)
    i.RadioInit                              0x0800d2c0   Section        0  radio.o(i.RadioInit)
    i.RadioProc                              0x0800d3fc   Section        0  radio.o(i.RadioProc)
    i.RdsDataDecode                          0x0800d76c   Section        0  rds.o(i.RdsDataDecode)
    i.RdsExtrProc                            0x0800d7a0   Section        0  rds.o(i.RdsExtrProc)
    i.RdsKeyAnaly                            0x0800dac8   Section        0  rdsapp.o(i.RdsKeyAnaly)
    i.RdsProc                                0x0800df28   Section        0  rdsapp.o(i.RdsProc)
    i.ReadArmCanStr                          0x0800e080   Section        0  usart1.o(i.ReadArmCanStr)
    i.ReadBandMsg                            0x0800e114   Section        0  radio.o(i.ReadBandMsg)
    i.ReadPresetMem                          0x0800e170   Section        0  radio.o(i.ReadPresetMem)
    i.ReadVM4ArmCanStr                       0x0800e1e0   Section        0  usart4.o(i.ReadVM4ArmCanStr)
    i.RemoteInt                              0x0800e28c   Section        0  irda.o(i.RemoteInt)
    i.RemoteProc                             0x0800e3f4   Section        0  irda.o(i.RemoteProc)
    i.ReportARM2UPDate                       0x0800e710   Section        0  armuart.o(i.ReportARM2UPDate)
    i.ReportAccState                         0x0800e778   Section        0  armuart.o(i.ReportAccState)
    i.ReportAccinfo                          0x0800e7c0   Section        0  armuart.o(i.ReportAccinfo)
    i.ReportChangeSource                     0x0800e848   Section        0  armuart.o(i.ReportChangeSource)
    i.ReportControlBackLight                 0x0800e888   Section        0  armuart.o(i.ReportControlBackLight)
    i.ReportDate                             0x0800e958   Section        0  armuart.o(i.ReportDate)
    i.ReportDeviceStatus                     0x0800eb78   Section        0  armuart.o(i.ReportDeviceStatus)
    i.ReportFastback                         0x0800ec74   Section        0  armuart.o(i.ReportFastback)
    i.ReportFirstBAT                         0x0800ed04   Section        0  armuart.o(i.ReportFirstBAT)
    i.ReportHandShake                        0x0800ed78   Section        0  armuart.o(i.ReportHandShake)
    i.ReportKeySuccess                       0x0800edba   Section        0  armuart.o(i.ReportKeySuccess)
    i.ReportMcuPowerinfo                     0x0800edfc   Section        0  armuart.o(i.ReportMcuPowerinfo)
    i.ReportMcuVisions                       0x0800ee58   Section        0  armuart.o(i.ReportMcuVisions)
    i.ReportRadioArea                        0x0800ef10   Section        0  armuart.o(i.ReportRadioArea)
    i.ReportRadioBaseInfo                    0x0800ef78   Section        0  armuart.o(i.ReportRadioBaseInfo)
    i.ReportRadioPreListinfo                 0x0800f204   Section        0  armuart.o(i.ReportRadioPreListinfo)
    i.ReportRadioSignalinfo                  0x0800f3b0   Section        0  armuart.o(i.ReportRadioSignalinfo)
    i.ReportRdsPsinfo                        0x0800f458   Section        0  armuart.o(i.ReportRdsPsinfo)
    i.ReportRdsRTinfo                        0x0800f4d4   Section        0  armuart.o(i.ReportRdsRTinfo)
    i.ReportSWCTable                         0x0800f54c   Section        0  armuart.o(i.ReportSWCTable)
    i.ReportSetVolume                        0x0800f678   Section        0  armuart.o(i.ReportSetVolume)
    i.ReportSetinfo                          0x0800f6ba   Section        0  armuart.o(i.ReportSetinfo)
    i.ResetExternDevice                      0x0800f6fc   Section        0  drive.o(i.ResetExternDevice)
    i.ResetStudyKeyNum                       0x0800f724   Section        0  swc.o(i.ResetStudyKeyNum)
    i.RestoreAfSt                            0x0800f75c   Section        0  rds.o(i.RestoreAfSt)
    i.RestoreStatNum                         0x0800f7b0   Section        0  radio.o(i.RestoreStatNum)
    i.RestoreStatNum1                        0x0800f7f0   Section        0  radio.o(i.RestoreStatNum1)
    i.RptKyCk                                0x0800f83c   Section        0  irda.o(i.RptKyCk)
    i.RstRmtDecode                           0x0800f858   Section        0  irda.o(i.RstRmtDecode)
    i.STChk                                  0x0800f8a4   Section        0  radio.o(i.STChk)
    i.SVC_Handler                            0x0800f960   Section        0  stm32f0xx_it.o(i.SVC_Handler)
    i.SYSCFG_EXTILineConfig                  0x0800f964   Section        0  stm32f0xx_syscfg.o(i.SYSCFG_EXTILineConfig)
    i.SaveCurBandMsg                         0x0800f9a4   Section        0  radio.o(i.SaveCurBandMsg)
    i.SaveEncodekey                          0x0800fa10   Section        0  key.o(i.SaveEncodekey)
    i.SaveLongkeyRelease                     0x0800fa5c   Section        0  key.o(i.SaveLongkeyRelease)
    i.SaveOriginalStat                       0x0800fabc   Section        0  radio.o(i.SaveOriginalStat)
    i.SaveRecombinationkey                   0x0800fad0   Section        0  key.o(i.SaveRecombinationkey)
    i.Savekey                                0x0800fb1c   Section        0  key.o(i.Savekey)
    i.Saveswckey                             0x0800fcd4   Section        0  swc.o(i.Saveswckey)
    i.ScanKey                                0x0800fd2e   Section        0  key.o(i.ScanKey)
    i.ScanPanelkey                           0x0800fd48   Section        0  key.o(i.ScanPanelkey)
    i.ScanProc                               0x0800fe8c   Section        0  radio.o(i.ScanProc)
    i.ScanSwckey                             0x0800ffa0   Section        0  swc.o(i.ScanSwckey)
    i.ScanVolEncodekey                       0x080100a4   Section        0  key.o(i.ScanVolEncodekey)
    i.SetLinUartBaud                         0x080101a4   Section        0  usart1.o(i.SetLinUartBaud)
    i.SetRadPwrDn                            0x08010220   Section        0  radio.o(i.SetRadPwrDn)
    i.SetRadPwrOff                           0x080102b4   Section        0  radio.o(i.SetRadPwrOff)
    i.SpKyCk                                 0x08010310   Section        0  irda.o(i.SpKyCk)
    i.StartChgBand                           0x08010334   Section        0  radio.o(i.StartChgBand)
    i.StartChkStat                           0x08010408   Section        0  radio.o(i.StartChkStat)
    i.StartWrPll                             0x08010428   Section        0  radio.o(i.StartWrPll)
    i.StatNumDec                             0x08010494   Section        0  radio.o(i.StatNumDec)
    i.StatNumInc                             0x08010578   Section        0  radio.o(i.StatNumInc)
    i.SwcInit                                0x0801066c   Section        0  swc.o(i.SwcInit)
    i.SysDelay                               0x08010678   Section        0  bsp.o(i.SysDelay)
    i.SysDelay10us                           0x08010694   Section        0  bsp.o(i.SysDelay10us)
    i.SysTick_Handler                        0x08010696   Section        0  stm32f0xx_it.o(i.SysTick_Handler)
    i.SysUartInit                            0x08010698   Section        0  mw_uart.o(i.SysUartInit)
    i.SysWait1Us                             0x0801082c   Section        0  sch_common.o(i.SysWait1Us)
    i.SysWaitUs                              0x08010848   Section        0  sch_common.o(i.SysWaitUs)
    i.SystemClkDown                          0x0801085c   Section        0  bsp.o(i.SystemClkDown)
    i.SystemInit                             0x08010904   Section        0  system_stm32f0xx.o(i.SystemInit)
    i.SystemPowerOff                         0x080109e8   Section        0  drive.o(i.SystemPowerOff)
    i.SystemPowerOn                          0x08010af4   Section        0  drive.o(i.SystemPowerOn)
    i.SystemSleepWake                        0x08010bcc   Section        0  drive.o(i.SystemSleepWake)
    i.SystemTimereset                        0x08010bd4   Section        0  drive.o(i.SystemTimereset)
    i.SystemTimeset                          0x08010c20   Section        0  drive.o(i.SystemTimeset)
    i.TASK_Can_Pro                           0x08010ecc   Section        0  app_can.o(i.TASK_Can_Pro)
    i.TIM14_IRQHandler                       0x08010ed4   Section        0  stm32f0xx_it.o(i.TIM14_IRQHandler)
    i.TIM2_IRQHandler                        0x08011034   Section        0  stm32f0xx_it.o(i.TIM2_IRQHandler)
    i.TIM_Cmd                                0x08011040   Section        0  stm32f0xx_tim.o(i.TIM_Cmd)
    i.TIM_GetCounter                         0x0801105c   Section        0  stm32f0xx_tim.o(i.TIM_GetCounter)
    i.TIM_ITConfig                           0x08011062   Section        0  stm32f0xx_tim.o(i.TIM_ITConfig)
    i.TIM_SetAutoreload                      0x08011076   Section        0  stm32f0xx_tim.o(i.TIM_SetAutoreload)
    i.TIM_SetCounter                         0x0801107a   Section        0  stm32f0xx_tim.o(i.TIM_SetCounter)
    i.TIM_TimeBaseInit                       0x08011080   Section        0  stm32f0xx_tim.o(i.TIM_TimeBaseInit)
    i.Time14Deinit                           0x080110fc   Section        0  bsp.o(i.Time14Deinit)
    i.Time14Init                             0x08011128   Section        0  bsp.o(i.Time14Init)
    i.Timer2Init                             0x080111ac   Section        0  irda.o(i.Timer2Init)
    i.TpSeekProc                             0x080111f8   Section        0  rds.o(i.TpSeekProc)
    i.TrafficProc                            0x080112ac   Section        0  rds.o(i.TrafficProc)
    i.TransmitKey                            0x0801144c   Section        0  key.o(i.TransmitKey)
    i.TunAMParmStartAddr                     0x08011528   Section        0  radio.o(i.TunAMParmStartAddr)
    i.TunFMORITParmStartAddr                 0x080115e0   Section        0  radio.o(i.TunFMORITParmStartAddr)
    i.TunFMParmStartAddr                     0x080115e8   Section        0  radio.o(i.TunFMParmStartAddr)
    i.TunParmStartAddr                       0x08011694   Section        0  radio.o(i.TunParmStartAddr)
    i.Tuner10msTimer                         0x080117fc   Section        0  tuner_elite.o(i.Tuner10msTimer)
    i.TunerChangeBand                        0x0801182c   Section        0  tuner_elite.o(i.TunerChangeBand)
    i.TunerReadAFSeekStatus                  0x0801190c   Section        0  tuner_elite.o(i.TunerReadAFSeekStatus)
    i.TunerSeekOff                           0x08011914   Section        0  tuner_elite.o(i.TunerSeekOff)
    i.TunerSeekOn                            0x08011920   Section        0  tuner_elite.o(i.TunerSeekOn)
    i.TunerSetAFChangeFreq                   0x08011938   Section        0  tuner_elite.o(i.TunerSetAFChangeFreq)
    i.TunerSetAFCheck                        0x08011994   Section        0  tuner_elite.o(i.TunerSetAFCheck)
    i.TunerSetAFEnd                          0x080119f0   Section        0  tuner_elite.o(i.TunerSetAFEnd)
    i.TunerSetFreq                           0x08011a58   Section        0  tuner_elite.o(i.TunerSetFreq)
    i.TunerStartupSeq                        0x08011ad8   Section        0  tuner_elite.o(i.TunerStartupSeq)
    i.USART1_IRQHandler                      0x08011ccc   Section        0  stm32f0xx_it.o(i.USART1_IRQHandler)
    i.USART2_IRQHandler                      0x08011d90   Section        0  stm32f0xx_it.o(i.USART2_IRQHandler)
    i.USART3_4_IRQHandler                    0x08011e50   Section        0  stm32f0xx_it.o(i.USART3_4_IRQHandler)
    i.USART_ClearFlag                        0x08011ef0   Section        0  stm32f0xx_usart.o(i.USART_ClearFlag)
    i.USART_ClearITPendingBit                0x08011ef4   Section        0  stm32f0xx_usart.o(i.USART_ClearITPendingBit)
    i.USART_Cmd                              0x08011f06   Section        0  stm32f0xx_usart.o(i.USART_Cmd)
    i.USART_DeInit                           0x08011f20   Section        0  stm32f0xx_usart.o(i.USART_DeInit)
    i.USART_GetFlagStatus                    0x08011f9c   Section        0  stm32f0xx_usart.o(i.USART_GetFlagStatus)
    i.USART_ITConfig                         0x08011fb0   Section        0  stm32f0xx_usart.o(i.USART_ITConfig)
    i.USART_Init                             0x08011ff4   Section        0  stm32f0xx_usart.o(i.USART_Init)
    i.USART_ReceiveData                      0x080120dc   Section        0  stm32f0xx_usart.o(i.USART_ReceiveData)
    i.USART_SendData                         0x080120e6   Section        0  stm32f0xx_usart.o(i.USART_SendData)
    i.Uart1Deinit                            0x080120f0   Section        0  bsp.o(i.Uart1Deinit)
    i.Uart1SendStr                           0x08012184   Section        0  usart1.o(i.Uart1SendStr)
    i.Uart2Deinit                            0x080121d4   Section        0  bsp.o(i.Uart2Deinit)
    i.Uart2Init                              0x08012244   Section        0  bsp.o(i.Uart2Init)
    i.Uart2SendStr                           0x08012324   Section        0  armuart.o(i.Uart2SendStr)
    i.Uart4Deinit                            0x080123dc   Section        0  bsp.o(i.Uart4Deinit)
    i.Uart4SendStr                           0x08012440   Section        0  usart4.o(i.Uart4SendStr)
    i.UartBufInit                            0x08012490   Section        0  mw_uart.o(i.UartBufInit)
    i.UartSendData8                          0x080124b8   Section        0  mw_uart.o(i.UartSendData8)
    i.UartTxData_Direct                      0x080124d0   Section        0  mw_uart.o(i.UartTxData_Direct)
    i.VM4CanInit                             0x08012508   Section        0  usart4.o(i.VM4CanInit)
    i.VMCanInit                              0x08012534   Section        0  usart1.o(i.VMCanInit)
    i.VectorRemap                            0x08012560   Section        0  bsp.o(i.VectorRemap)
    i.Wr7786CkStatProc                       0x080125a0   Section        0  radio.o(i.Wr7786CkStatProc)
    i.Wr7786PllProc                          0x080126f8   Section        0  radio.o(i.Wr7786PllProc)
    i.WritePresetMem                         0x080128a4   Section        0  radio.o(i.WritePresetMem)
    i.__ARM_common_switch8                   0x08012908   Section        0  core.o(i.__ARM_common_switch8)
    i.__Printf_Conversion                    0x08012924   Section        0  sch_printf.o(i.__Printf_Conversion)
    __Printf_Conversion                      0x08012925   Thumb Code   164  sch_printf.o(i.__Printf_Conversion)
    i.main                                   0x080129dc   Section        0  main.o(i.main)
    i.sch_memcpy                             0x08012b40   Section        0  sch_common.o(i.sch_memcpy)
    i.sch_memset                             0x08012b5c   Section        0  sch_common.o(i.sch_memset)
    .constdata                               0x08012b72   Section       26  drive.o(.constdata)
    x$fpl$usenofp                            0x08012b72   Section        0  usenofp.o(x$fpl$usenofp)
    .constdata                               0x08012b8c   Section       16  mw_can.o(.constdata)
    .constdata                               0x08012b9c   Section     2532  radio.o(.constdata)
    .constdata                               0x08013580   Section       48  mw_uart.o(.constdata)
    .constdata                               0x080135b0   Section     9807  tuner_elite.o(.constdata)
    I2CBootData                              0x080135b0   Data        9689  tuner_elite.o(.constdata)
    FMCustomWSPData                          0x08015b89   Data          17  tuner_elite.o(.constdata)
    AMCustomWSPData                          0x08015b9a   Data           1  tuner_elite.o(.constdata)
    WXCustomWSPData                          0x08015b9b   Data           1  tuner_elite.o(.constdata)
    FMFEReg                                  0x08015b9c   Data          33  tuner_elite.o(.constdata)
    WXFEReg                                  0x08015bbd   Data          33  tuner_elite.o(.constdata)
    AMFEReg                                  0x08015bde   Data          33  tuner_elite.o(.constdata)
    .constdata                               0x08015bff   Section      128  ddiv.o(.constdata)
    ddiv_reciptbl                            0x08015bff   Data         128  ddiv.o(.constdata)
    .conststring                             0x08015c80   Section      151  radio.o(.conststring)
    .data                                    0x200000c0   Section        2  stm32f0xx_it.o(.data)
    syspopcnt                                0x200000c0   Data           1  stm32f0xx_it.o(.data)
    syspopcnt_x4ms                           0x200000c1   Data           1  stm32f0xx_it.o(.data)
    .data                                    0x200000c4   Section       22  bsp.o(.data)
    .data                                    0x200000da   Section       13  core.o(.data)
    .data                                    0x200000e7   Section       22  detection.o(.data)
    gkeycount                                0x200000fb   Data           1  detection.o(.data)
    gkeyerrorflag                            0x200000fc   Data           1  detection.o(.data)
    .data                                    0x200000fe   Section       19  drive.o(.data)
    .data                                    0x20000111   Section       27  key.o(.data)
    panelleftkeyold                          0x2000011c   Data           1  key.o(.data)
    panelrightkeyold                         0x2000011d   Data           1  key.o(.data)
    bleftlongpresstime                       0x2000011e   Data           1  key.o(.data)
    brightlongpresstime                      0x2000011f   Data           1  key.o(.data)
    bleftkeylongmem                          0x20000120   Data           1  key.o(.data)
    brightkeylongmem                         0x20000121   Data           1  key.o(.data)
    bflashLevelCntL                          0x20000122   Data           1  key.o(.data)
    bflashLevelCntH                          0x20000123   Data           1  key.o(.data)
    bvolumkeyFlag                            0x20000124   Data           1  key.o(.data)
    bvollongpresstime                        0x20000125   Data           1  key.o(.data)
    encodekeyold                             0x20000126   Data           1  key.o(.data)
    gkey1                                    0x20000127   Data           1  key.o(.data)
    gkey2                                    0x20000128   Data           1  key.o(.data)
    encodekeyold                             0x20000129   Data           1  key.o(.data)
    tkey1                                    0x2000012a   Data           1  key.o(.data)
    tkey2                                    0x2000012b   Data           1  key.o(.data)
    .data                                    0x2000012c   Section       17  armuart.o(.data)
    .data                                    0x2000013e   Section      349  swc.o(.data)
    index                                    0x20000296   Data           1  swc.o(.data)
    index                                    0x20000297   Data           1  swc.o(.data)
    swckeyreadlast                           0x20000298   Data           1  swc.o(.data)
    bswclongpresstime                        0x20000299   Data           1  swc.o(.data)
    bswckeymem                               0x2000029a   Data           1  swc.o(.data)
    .data                                    0x2000029c   Section       16  usart1.o(.data)
    .data                                    0x200002ac   Section       72  mw_can.o(.data)
    .data                                    0x200002f4   Section       16  stm32f0xx_rcc.o(.data)
    APBAHBPrescTable                         0x200002f4   Data          16  stm32f0xx_rcc.o(.data)
    .data                                    0x20000304   Section      113  irda.o(.data)
    .data                                    0x20000376   Section       95  radio.o(.data)
    .data                                    0x200003d6   Section       14  usart4.o(.data)
    .data                                    0x200003e4   Section      144  sch_message.o(.data)
    .data                                    0x20000474   Section      212  mw_uart.o(.data)
    .data                                    0x20000548   Section      154  rds.o(.data)
    rfreq                                    0x200005e0   Data           2  rds.o(.data)
    .data                                    0x200005e2   Section       11  rdseon.o(.data)
    .data                                    0x200005f0   Section       20  tuner_elite.o(.data)
    temp                                     0x200005f4   Data           1  tuner_elite.o(.data)
    temp                                     0x200005f5   Data           1  tuner_elite.o(.data)
    temp                                     0x200005f6   Data           1  tuner_elite.o(.data)
    temp                                     0x200005f7   Data           1  tuner_elite.o(.data)
    temp                                     0x200005f8   Data           1  tuner_elite.o(.data)
    pilotth                                  0x200005fc   Data           4  tuner_elite.o(.data)
    r7786mute                                0x20000600   Data           4  tuner_elite.o(.data)
    .bss                                     0x20000604   Section       12  bsp.o(.bss)
    .bss                                     0x20000610   Section       37  core.o(.bss)
    .bss                                     0x20000636   Section       10  drive.o(.bss)
    .bss                                     0x20000640   Section       24  key.o(.bss)
    .bss                                     0x20000658   Section     1791  armuart.o(.bss)
    .bss                                     0x20000d58   Section       60  swc.o(.bss)
    ADC_Value                                0x20000d6c   Data          20  swc.o(.bss)
    ADC_Value                                0x20000d80   Data          20  swc.o(.bss)
    .bss                                     0x20000d94   Section      712  usart1.o(.bss)
    .bss                                     0x2000105c   Section       26  app_can.o(.bss)
    .bss                                     0x20001078   Section      800  mw_can.o(.bss)
    .bss                                     0x20001398   Section      214  radio.o(.bss)
    .bss                                     0x2000146e   Section      867  usart4.o(.bss)
    .bss                                     0x200017d2   Section      360  sch_message.o(.bss)
    .bss                                     0x2000193a   Section     1536  mw_uart.o(.bss)
    .bss                                     0x20001f3a   Section     2290  rds.o(.bss)
    .bss                                     0x2000282c   Section      224  rdseon.o(.bss)
    .bss                                     0x2000290c   Section      692  tuner_elite.o(.bss)
    .bss                                     0x20002bc0   Section       96  libspace.o(.bss)
    HEAP                                     0x20002c20   Section      512  startup_stm32f072xb.o(HEAP)
    Heap_Mem                                 0x20002c20   Data         512  startup_stm32f072xb.o(HEAP)
    STACK                                    0x20002e20   Section     1024  startup_stm32f072xb.o(STACK)
    Stack_Mem                                0x20002e20   Data        1024  startup_stm32f072xb.o(STACK)
    __initial_sp                             0x20003220   Data           0  startup_stm32f072xb.o(STACK)

    Global Symbols

    Symbol Name                              Value     Ov Type        Size  Object(Section)

    BuildAttributes$$THM_ISAv3M$S$PE$A:L22$X:L11$S22$IEEE1$IW$USESV6$~STKCKD$USESV7$~SHL$OSPACE$ROPI$EBA8$UX$STANDARDLIB$REQ8$PRES8$EABIv2 0x00000000   Number         0  anon$$obj.o ABSOLUTE
    __ARM_use_no_argv                        0x00000000   Number         0  main.o ABSOLUTE
    __ARM_exceptions_init                     - Undefined Weak Reference
    __alloca_initialize                       - Undefined Weak Reference
    __arm_preinit_                            - Undefined Weak Reference
    __cpp_initialize__aeabi_                  - Undefined Weak Reference
    __cxa_finalize                            - Undefined Weak Reference
    __rt_locale                               - Undefined Weak Reference
    __sigvec_lookup                           - Undefined Weak Reference
    _atexit_init                              - Undefined Weak Reference
    _call_atexit_fns                          - Undefined Weak Reference
    _clock_init                               - Undefined Weak Reference
    _fp_trap_init                             - Undefined Weak Reference
    _fp_trap_shutdown                         - Undefined Weak Reference
    _get_lc_collate                           - Undefined Weak Reference
    _get_lc_ctype                             - Undefined Weak Reference
    _get_lc_monetary                          - Undefined Weak Reference
    _get_lc_numeric                           - Undefined Weak Reference
    _get_lc_time                              - Undefined Weak Reference
    _getenv_init                              - Undefined Weak Reference
    _handle_redirection                       - Undefined Weak Reference
    _init_alloc                               - Undefined Weak Reference
    _init_user_alloc                          - Undefined Weak Reference
    _initio                                   - Undefined Weak Reference
    _rand_init                                - Undefined Weak Reference
    _signal_finish                            - Undefined Weak Reference
    _signal_init                              - Undefined Weak Reference
    _terminate_alloc                          - Undefined Weak Reference
    _terminate_user_alloc                     - Undefined Weak Reference
    _terminateio                              - Undefined Weak Reference
    __Vectors_Size                           0x000000c0   Number         0  startup_stm32f072xb.o ABSOLUTE
    __Vectors                                0x08001800   Data           4  startup_stm32f072xb.o(RESET)
    __Vectors_End                            0x080018c0   Data           0  startup_stm32f072xb.o(RESET)
    __main                                   0x080018c1   Thumb Code     8  __main.o(!!!main)
    __scatterload                            0x080018c9   Thumb Code     0  __scatter.o(!!!scatter)
    __scatterload_rt2                        0x080018c9   Thumb Code    52  __scatter.o(!!!scatter)
    __scatterload_rt2_thumb_only             0x080018c9   Thumb Code     0  __scatter.o(!!!scatter)
    __scatterload_null                       0x080018d9   Thumb Code     0  __scatter.o(!!!scatter)
    __scatterload_zeroinit                   0x08001905   Thumb Code    28  __scatter_zi.o(!!handler_zi)
    __rt_lib_init                            0x08001921   Thumb Code     0  libinit.o(.ARM.Collect$$libinit$$00000000)
    __rt_lib_init_alloca_1                   0x08001923   Thumb Code     0  libinit2.o(.ARM.Collect$$libinit$$0000002E)
    __rt_lib_init_argv_1                     0x08001923   Thumb Code     0  libinit2.o(.ARM.Collect$$libinit$$0000002C)
    __rt_lib_init_atexit_1                   0x08001923   Thumb Code     0  libinit2.o(.ARM.Collect$$libinit$$0000001B)
    __rt_lib_init_clock_1                    0x08001923   Thumb Code     0  libinit2.o(.ARM.Collect$$libinit$$00000021)
    __rt_lib_init_cpp_1                      0x08001923   Thumb Code     0  libinit2.o(.ARM.Collect$$libinit$$00000032)
    __rt_lib_init_exceptions_1               0x08001923   Thumb Code     0  libinit2.o(.ARM.Collect$$libinit$$00000030)
    __rt_lib_init_fp_1                       0x08001923   Thumb Code     0  libinit2.o(.ARM.Collect$$libinit$$00000002)
    __rt_lib_init_fp_trap_1                  0x08001923   Thumb Code     0  libinit2.o(.ARM.Collect$$libinit$$0000001F)
    __rt_lib_init_getenv_1                   0x08001923   Thumb Code     0  libinit2.o(.ARM.Collect$$libinit$$00000023)
    __rt_lib_init_heap_1                     0x08001923   Thumb Code     0  libinit2.o(.ARM.Collect$$libinit$$0000000A)
    __rt_lib_init_lc_collate_1               0x08001923   Thumb Code     0  libinit2.o(.ARM.Collect$$libinit$$00000011)
    __rt_lib_init_lc_ctype_1                 0x08001923   Thumb Code     0  libinit2.o(.ARM.Collect$$libinit$$00000013)
    __rt_lib_init_lc_monetary_1              0x08001923   Thumb Code     0  libinit2.o(.ARM.Collect$$libinit$$00000015)
    __rt_lib_init_lc_numeric_1               0x08001923   Thumb Code     0  libinit2.o(.ARM.Collect$$libinit$$00000017)
    __rt_lib_init_lc_time_1                  0x08001923   Thumb Code     0  libinit2.o(.ARM.Collect$$libinit$$00000019)
    __rt_lib_init_preinit_1                  0x08001923   Thumb Code     0  libinit2.o(.ARM.Collect$$libinit$$00000004)
    __rt_lib_init_rand_1                     0x08001923   Thumb Code     0  libinit2.o(.ARM.Collect$$libinit$$0000000E)
    __rt_lib_init_return                     0x08001923   Thumb Code     0  libinit2.o(.ARM.Collect$$libinit$$00000033)
    __rt_lib_init_signal_1                   0x08001923   Thumb Code     0  libinit2.o(.ARM.Collect$$libinit$$0000001D)
    __rt_lib_init_stdio_1                    0x08001923   Thumb Code     0  libinit2.o(.ARM.Collect$$libinit$$00000025)
    __rt_lib_init_user_alloc_1               0x08001923   Thumb Code     0  libinit2.o(.ARM.Collect$$libinit$$0000000C)
    __rt_lib_shutdown                        0x08001925   Thumb Code     0  libshutdown.o(.ARM.Collect$$libshutdown$$00000000)
    __rt_lib_shutdown_cpp_1                  0x08001927   Thumb Code     0  libshutdown2.o(.ARM.Collect$$libshutdown$$00000002)
    __rt_lib_shutdown_fp_trap_1              0x08001927   Thumb Code     0  libshutdown2.o(.ARM.Collect$$libshutdown$$00000007)
    __rt_lib_shutdown_heap_1                 0x08001927   Thumb Code     0  libshutdown2.o(.ARM.Collect$$libshutdown$$0000000F)
    __rt_lib_shutdown_return                 0x08001927   Thumb Code     0  libshutdown2.o(.ARM.Collect$$libshutdown$$00000010)
    __rt_lib_shutdown_signal_1               0x08001927   Thumb Code     0  libshutdown2.o(.ARM.Collect$$libshutdown$$0000000A)
    __rt_lib_shutdown_stdio_1                0x08001927   Thumb Code     0  libshutdown2.o(.ARM.Collect$$libshutdown$$00000004)
    __rt_lib_shutdown_user_alloc_1           0x08001927   Thumb Code     0  libshutdown2.o(.ARM.Collect$$libshutdown$$0000000C)
    __rt_entry                               0x08001929   Thumb Code     0  __rtentry.o(.ARM.Collect$$rtentry$$00000000)
    __rt_entry_presh_1                       0x08001929   Thumb Code     0  __rtentry2.o(.ARM.Collect$$rtentry$$00000002)
    __rt_entry_sh                            0x08001929   Thumb Code     0  __rtentry4.o(.ARM.Collect$$rtentry$$00000004)
    __rt_entry_li                            0x0800192f   Thumb Code     0  __rtentry2.o(.ARM.Collect$$rtentry$$0000000A)
    __rt_entry_postsh_1                      0x0800192f   Thumb Code     0  __rtentry2.o(.ARM.Collect$$rtentry$$00000009)
    __rt_entry_main                          0x08001933   Thumb Code     0  __rtentry2.o(.ARM.Collect$$rtentry$$0000000D)
    __rt_entry_postli_1                      0x08001933   Thumb Code     0  __rtentry2.o(.ARM.Collect$$rtentry$$0000000C)
    __rt_exit                                0x0800193b   Thumb Code     0  rtexit.o(.ARM.Collect$$rtexit$$00000000)
    __rt_exit_ls                             0x0800193d   Thumb Code     0  rtexit2.o(.ARM.Collect$$rtexit$$00000003)
    __rt_exit_prels_1                        0x0800193d   Thumb Code     0  rtexit2.o(.ARM.Collect$$rtexit$$00000002)
    __rt_exit_exit                           0x08001941   Thumb Code     0  rtexit2.o(.ARM.Collect$$rtexit$$00000004)
    __aeabi_memcpy4                          0x08001949   Thumb Code    56  rt_memcpy.o(.emb_text)
    __aeabi_memcpy8                          0x08001949   Thumb Code     0  rt_memcpy.o(.emb_text)
    Reset_Handler                            0x08001981   Thumb Code     8  startup_stm32f072xb.o(.text)
    ADC1_COMP_IRQHandler                     0x08001993   Thumb Code     0  startup_stm32f072xb.o(.text)
    DMA1_Channel1_IRQHandler                 0x08001993   Thumb Code     0  startup_stm32f072xb.o(.text)
    DMA1_Channel2_3_IRQHandler               0x08001993   Thumb Code     0  startup_stm32f072xb.o(.text)
    DMA1_Channel4_5_6_7_IRQHandler           0x08001993   Thumb Code     0  startup_stm32f072xb.o(.text)
    EXTI2_3_IRQHandler                       0x08001993   Thumb Code     0  startup_stm32f072xb.o(.text)
    FLASH_IRQHandler                         0x08001993   Thumb Code     0  startup_stm32f072xb.o(.text)
    I2C1_IRQHandler                          0x08001993   Thumb Code     0  startup_stm32f072xb.o(.text)
    I2C2_IRQHandler                          0x08001993   Thumb Code     0  startup_stm32f072xb.o(.text)
    PVD_VDDIO2_IRQHandler                    0x08001993   Thumb Code     0  startup_stm32f072xb.o(.text)
    RCC_CRS_IRQHandler                       0x08001993   Thumb Code     0  startup_stm32f072xb.o(.text)
    SPI1_IRQHandler                          0x08001993   Thumb Code     0  startup_stm32f072xb.o(.text)
    SPI2_IRQHandler                          0x08001993   Thumb Code     0  startup_stm32f072xb.o(.text)
    TIM15_IRQHandler                         0x08001993   Thumb Code     0  startup_stm32f072xb.o(.text)
    TIM16_IRQHandler                         0x08001993   Thumb Code     0  startup_stm32f072xb.o(.text)
    TIM17_IRQHandler                         0x08001993   Thumb Code     0  startup_stm32f072xb.o(.text)
    TIM1_BRK_UP_TRG_COM_IRQHandler           0x08001993   Thumb Code     0  startup_stm32f072xb.o(.text)
    TIM1_CC_IRQHandler                       0x08001993   Thumb Code     0  startup_stm32f072xb.o(.text)
    TIM3_IRQHandler                          0x08001993   Thumb Code     0  startup_stm32f072xb.o(.text)
    TIM6_DAC_IRQHandler                      0x08001993   Thumb Code     0  startup_stm32f072xb.o(.text)
    TIM7_IRQHandler                          0x08001993   Thumb Code     0  startup_stm32f072xb.o(.text)
    TSC_IRQHandler                           0x08001993   Thumb Code     0  startup_stm32f072xb.o(.text)
    USB_IRQHandler                           0x08001993   Thumb Code     0  startup_stm32f072xb.o(.text)
    WWDG_IRQHandler                          0x08001993   Thumb Code     0  startup_stm32f072xb.o(.text)
    __user_initial_stackheap                 0x08001995   Thumb Code     0  startup_stm32f072xb.o(.text)
    _memset_w                                0x080019b9   Thumb Code    26  rt_memclr.o(.text)
    _memset                                  0x080019d3   Thumb Code    30  rt_memclr.o(.text)
    __aeabi_memclr                           0x080019f1   Thumb Code     4  rt_memclr.o(.text)
    __rt_memclr                              0x080019f1   Thumb Code     0  rt_memclr.o(.text)
    __aeabi_memclr4                          0x080019f5   Thumb Code     0  rt_memclr.o(.text)
    __aeabi_memclr8                          0x080019f5   Thumb Code     0  rt_memclr.o(.text)
    __rt_memclr_w                            0x080019f5   Thumb Code     4  rt_memclr.o(.text)
    __aeabi_uidiv                            0x080019f9   Thumb Code     0  aeabi_sdiv.o(.text)
    __aeabi_uidivmod                         0x080019f9   Thumb Code    20  aeabi_sdiv.o(.text)
    __aeabi_idiv                             0x08001a0d   Thumb Code     0  aeabi_sdiv.o(.text)
    __aeabi_idivmod                          0x08001a0d   Thumb Code   326  aeabi_sdiv.o(.text)
    __use_two_region_memory                  0x08001b53   Thumb Code     2  heapauxi.o(.text)
    __rt_heap_escrow$2region                 0x08001b55   Thumb Code     2  heapauxi.o(.text)
    __rt_heap_expand$2region                 0x08001b57   Thumb Code     2  heapauxi.o(.text)
    __aeabi_dadd                             0x08001e51   Thumb Code     0  daddsub.o(.text)
    _dadd                                    0x08001e51   Thumb Code    26  daddsub.o(.text)
    __aeabi_dsub                             0x08001e6b   Thumb Code     0  daddsub.o(.text)
    _dsub                                    0x08001e6b   Thumb Code    22  daddsub.o(.text)
    __aeabi_drsub                            0x08001e81   Thumb Code     0  daddsub.o(.text)
    _drsb                                    0x08001e81   Thumb Code    28  daddsub.o(.text)
    __aeabi_ddiv                             0x08001eb1   Thumb Code     0  ddiv.o(.text)
    _ddiv                                    0x08001eb1   Thumb Code  1072  ddiv.o(.text)
    _drdiv                                   0x080022e1   Thumb Code    20  ddiv.o(.text)
    __aeabi_d2uiz                            0x080022f9   Thumb Code     0  dfixui.o(.text)
    _dfixu                                   0x080022f9   Thumb Code    68  dfixui.o(.text)
    __aeabi_i2d_normalise                    0x08002341   Thumb Code    66  dflti.o(.text)
    __aeabi_i2d                              0x08002383   Thumb Code    16  dflti.o(.text)
    _dflt                                    0x08002383   Thumb Code     0  dflti.o(.text)
    __aeabi_ui2d                             0x08002393   Thumb Code     6  dflti.o(.text)
    _dfltu                                   0x08002393   Thumb Code     0  dflti.o(.text)
    __aeabi_dmul                             0x08002399   Thumb Code     0  dmul.o(.text)
    _dmul                                    0x08002399   Thumb Code   558  dmul.o(.text)
    __user_setup_stackheap                   0x080025e1   Thumb Code    62  sys_stackheap_outer.o(.text)
    exit                                     0x0800261f   Thumb Code    16  exit.o(.text)
    __user_libspace                          0x08002631   Thumb Code     8  libspace.o(.text)
    __user_perproc_libspace                  0x08002631   Thumb Code     0  libspace.o(.text)
    __user_perthread_libspace                0x08002631   Thumb Code     0  libspace.o(.text)
    _sys_exit                                0x08002639   Thumb Code     8  sys_exit.o(.text)
    __I$use$semihosting                      0x08002645   Thumb Code     0  use_no_semi.o(.text)
    __use_no_semihosting_swi                 0x08002645   Thumb Code     2  use_no_semi.o(.text)
    __decompress                             0x08002647   Thumb Code     0  __dczerorl2.o(.text)
    __decompress1                            0x08002647   Thumb Code    86  __dczerorl2.o(.text)
    __semihosting_library_function           0x08002647   Thumb Code     0  indicate_semi.o(.text)
    ADC_GetData                              0x0800269d   Thumb Code    52  swc.o(i.ADC_GetData)
    AD_SW2_Key_Scan                          0x080026d9   Thumb Code   172  swc.o(i.AD_SW2_Key_Scan)
    AFCheckInit                              0x08002795   Thumb Code   176  tuner_elite.o(i.AFCheckInit)
    ASProc                                   0x08002861   Thumb Code  2490  radio.o(i.ASProc)
    ATProc                                   0x08003249   Thumb Code   262  radio.o(i.ATProc)
    AdcDeinit                                0x0800338d   Thumb Code    56  bsp.o(i.AdcDeinit)
    AdcInit                                  0x080033d1   Thumb Code   180  bsp.o(i.AdcInit)
    AfDetProc                                0x0800349d   Thumb Code   634  rds.o(i.AfDetProc)
    AnalysisCanStr                           0x08003775   Thumb Code    84  usart4.o(i.AnalysisCanStr)
    ArmUartInit                              0x080037cd   Thumb Code    46  armuart.o(i.ArmUartInit)
    BkupStatNum                              0x08003815   Thumb Code    18  radio.o(i.BkupStatNum)
    BspInit                                  0x08003839   Thumb Code    54  bsp.o(i.BspInit)
    Bsp_UART_Init                            0x08003881   Thumb Code    34  bsp.o(i.Bsp_UART_Init)
    CAN_ClearITPendingBit                    0x080038a5   Thumb Code   184  stm32f0xx_can.o(i.CAN_ClearITPendingBit)
    CAN_Receive                              0x08003961   Thumb Code   262  stm32f0xx_can.o(i.CAN_Receive)
    CAN_Transmit                             0x08003a67   Thumb Code   308  stm32f0xx_can.o(i.CAN_Transmit)
    CEC_CAN_IRQHandler                       0x08003b9d   Thumb Code    86  stm32f0xx_it.o(i.CEC_CAN_IRQHandler)
    CanPutToBuf                              0x08003bf9   Thumb Code    42  mw_can.o(i.CanPutToBuf)
    Can_Rx_DataPro                           0x08003c29   Thumb Code    20  mw_can.o(i.Can_Rx_DataPro)
    ChkNoStat                                0x08003c3d   Thumb Code    32  radio.o(i.ChkNoStat)
    ChkStatExist                             0x08003c65   Thumb Code    46  radio.o(i.ChkStatExist)
    Ck7786StatProc                           0x08003ca1   Thumb Code   516  radio.o(i.Ck7786StatProc)
    CloseExternDevice                        0x08003ef5   Thumb Code   206  drive.o(i.CloseExternDevice)
    ClrKeyInfo                               0x08003fd9   Thumb Code    20  swc.o(i.ClrKeyInfo)
    ClrRDSParms                              0x08003fed   Thumb Code    72  rdsapp.o(i.ClrRDSParms)
    CoreAccProcess                           0x08004075   Thumb Code   870  core.o(i.CoreAccProcess)
    CoreFastArm2update                       0x080044a9   Thumb Code   144  core.o(i.CoreFastArm2update)
    CoreFastBack                             0x08004549   Thumb Code   108  core.o(i.CoreFastBack)
    CoreFastPanel                            0x080045c9   Thumb Code    52  core.o(i.CoreFastPanel)
    CoreInit                                 0x08004609   Thumb Code    38  core.o(i.CoreInit)
    CorePowerProcess                         0x0800463d   Thumb Code   400  core.o(i.CorePowerProcess)
    CoreTime                                 0x08004851   Thumb Code    50  core.o(i.CoreTime)
    CoreWakeupDetect                         0x0800488d   Thumb Code    88  detection.o(i.CoreWakeupDetect)
    DetecAccSignal                           0x080048f9   Thumb Code    86  detection.o(i.DetecAccSignal)
    DetecBackSight                           0x08004965   Thumb Code   164  detection.o(i.DetecBackSight)
    DetecBat                                 0x08004a25   Thumb Code   256  detection.o(i.DetecBat)
    DetecBrakeSight                          0x08004b65   Thumb Code   104  detection.o(i.DetecBrakeSight)
    DetecCarILL                              0x08004be1   Thumb Code   102  detection.o(i.DetecCarILL)
    DetectInit                               0x08004c5d   Thumb Code    88  detection.o(i.DetectInit)
    DetectSignal                             0x08004cfd   Thumb Code    48  detection.o(i.DetectSignal)
    Disable_RDS_Int                          0x08004d31   Thumb Code    66  tuner_elite.o(i.Disable_RDS_Int)
    DriveInit                                0x08004d7d   Thumb Code    98  drive.o(i.DriveInit)
    EXTI0_1_IRQHandler                       0x08004e15   Thumb Code    38  stm32f0xx_it.o(i.EXTI0_1_IRQHandler)
    EXTI4_15_IRQHandler                      0x08004e41   Thumb Code    56  stm32f0xx_it.o(i.EXTI4_15_IRQHandler)
    EXTI_ClearITPendingBit                   0x08004e7d   Thumb Code     6  stm32f0xx_exti.o(i.EXTI_ClearITPendingBit)
    EXTI_GetITStatus                         0x08004e89   Thumb Code    22  stm32f0xx_exti.o(i.EXTI_GetITStatus)
    EXTI_Init                                0x08004ea5   Thumb Code   132  stm32f0xx_exti.o(i.EXTI_Init)
    EXTI_StructInit                          0x08004f2d   Thumb Code    16  stm32f0xx_exti.o(i.EXTI_StructInit)
    Elite_BootcodeDownload                   0x08004f3d   Thumb Code   102  tuner_elite.o(i.Elite_BootcodeDownload)
    Elite_CmdAFCheck                         0x08004fa9   Thumb Code    42  tuner_elite.o(i.Elite_CmdAFCheck)
    Elite_CmdAFEnd                           0x08004fd9   Thumb Code    42  tuner_elite.o(i.Elite_CmdAFEnd)
    Elite_CmdChangeAFFreq                    0x08005009   Thumb Code    42  tuner_elite.o(i.Elite_CmdChangeAFFreq)
    Elite_CmdChangeBand                      0x08005039   Thumb Code   156  tuner_elite.o(i.Elite_CmdChangeBand)
    Elite_CmdChangeFreq                      0x080050dd   Thumb Code    94  tuner_elite.o(i.Elite_CmdChangeFreq)
    Elite_CmdMuSICA                          0x08005145   Thumb Code    30  tuner_elite.o(i.Elite_CmdMuSICA)
    Elite_CmdReadAFQual                      0x08005169   Thumb Code    50  tuner_elite.o(i.Elite_CmdReadAFQual)
    Elite_CmdReadMem                         0x080051a1   Thumb Code   122  tuner_elite.o(i.Elite_CmdReadMem)
    Elite_CmdReadSeekStatus                  0x08005225   Thumb Code   824  tuner_elite.o(i.Elite_CmdReadSeekStatus)
    Elite_CmdReadTDSR                        0x08005599   Thumb Code   170  tuner_elite.o(i.Elite_CmdReadTDSR)
    Elite_CmdReadTunerStatus                 0x08005649   Thumb Code   142  tuner_elite.o(i.Elite_CmdReadTunerStatus)
    Elite_CmdSeekEnd                         0x080056dd   Thumb Code    32  tuner_elite.o(i.Elite_CmdSeekEnd)
    Elite_CmdSetFEReg                        0x08005701   Thumb Code   400  tuner_elite.o(i.Elite_CmdSetFEReg)
    Elite_CmdSetSeekTH                       0x080058a1   Thumb Code   244  tuner_elite.o(i.Elite_CmdSetSeekTH)
    Elite_CmdStartManualSeek                 0x08005999   Thumb Code    42  tuner_elite.o(i.Elite_CmdStartManualSeek)
    Elite_CmdStartup                         0x080059c9   Thumb Code    82  tuner_elite.o(i.Elite_CmdStartup)
    Elite_CmdWriteBeCoeff                    0x08005a25   Thumb Code   528  tuner_elite.o(i.Elite_CmdWriteBeCoeff)
    Elite_CmdWriteMem                        0x08005c49   Thumb Code   156  tuner_elite.o(i.Elite_CmdWriteMem)
    Elite_CmdWriteRead                       0x08005ced   Thumb Code    86  tuner_elite.o(i.Elite_CmdWriteRead)
    Elite_DirectRead                         0x08005d49   Thumb Code   432  tuner_elite.o(i.Elite_DirectRead)
    Elite_DirectWrite                        0x08005efd   Thumb Code   354  tuner_elite.o(i.Elite_DirectWrite)
    Elite_GetAverageQuality                  0x08006065   Thumb Code   278  tuner_elite.o(i.Elite_GetAverageQuality)
    Enable_RDS_Int                           0x08006191   Thumb Code   112  tuner_elite.o(i.Enable_RDS_Int)
    EonTADetProc                             0x08006209   Thumb Code   560  rdseon.o(i.EonTADetProc)
    FLASH_if_ClearFlag                       0x080064e5   Thumb Code     6  flash_if.o(i.FLASH_if_ClearFlag)
    FLASH_if_ErasePage                       0x080064f1   Thumb Code    70  flash_if.o(i.FLASH_if_ErasePage)
    FLASH_if_Init                            0x0800653d   Thumb Code    14  flash_if.o(i.FLASH_if_Init)
    FLASH_if_Lock                            0x0800654d   Thumb Code    14  flash_if.o(i.FLASH_if_Lock)
    FLASH_if_Readhalfword                    0x08006561   Thumb Code     8  flash_if.o(i.FLASH_if_Readhalfword)
    FLASH_if_Unlock                          0x08006569   Thumb Code    12  flash_if.o(i.FLASH_if_Unlock)
    FLASH_if_WaitForLastOperation            0x08006581   Thumb Code    62  flash_if.o(i.FLASH_if_WaitForLastOperation)
    FLASH_if_Writehalfword                   0x080065c5   Thumb Code    60  flash_if.o(i.FLASH_if_Writehalfword)
    GPIO_Init                                0x08006605   Thumb Code   144  stm32f0xx_gpio.o(i.GPIO_Init)
    GPIO_PinAFConfig                         0x08006695   Thumb Code    68  stm32f0xx_gpio.o(i.GPIO_PinAFConfig)
    GalaDeInit                               0x080066d9   Thumb Code     2  bsp.o(i.GalaDeInit)
    GalaInit                                 0x080066db   Thumb Code     4  bsp.o(i.GalaInit)
    GetAverage_U16                           0x080066df   Thumb Code    38  sch_common.o(i.GetAverage_U16)
    GetKeyData                               0x08006705   Thumb Code   134  swc.o(i.GetKeyData)
    GetKeyData2                              0x08006799   Thumb Code   134  swc.o(i.GetKeyData2)
    GetKeyNum                                0x0800682d   Thumb Code    40  swc.o(i.GetKeyNum)
    GetMaxStat                               0x08006855   Thumb Code    22  radio.o(i.GetMaxStat)
    GetMessage                               0x0800686d   Thumb Code    22  sch_message.o(i.GetMessage)
    GetRadFreOctData                         0x08006889   Thumb Code   118  radio.o(i.GetRadFreOctData)
    GetRadPlayFre                            0x0800690d   Thumb Code   164  radio.o(i.GetRadPlayFre)
    GetRdsAFFreq                             0x080069dd   Thumb Code    90  radio.o(i.GetRdsAFFreq)
    GetSW2StudyKeyNum                        0x08006a41   Thumb Code    32  swc.o(i.GetSW2StudyKeyNum)
    GetSWStudyKeyNum                         0x08006a65   Thumb Code    32  swc.o(i.GetSWStudyKeyNum)
    GpioInit                                 0x08006a89   Thumb Code   160  bsp.o(i.GpioInit)
    HITPushToLast                            0x08006b51   Thumb Code   338  tuner_elite.o(i.HITPushToLast)
    HIT_ForeceMono                           0x08006ca9   Thumb Code    92  tuner_elite.o(i.HIT_ForeceMono)
    HIT_ForeceMute                           0x08006d15   Thumb Code    84  tuner_elite.o(i.HIT_ForeceMute)
    HardFault_Handler                        0x08006d7d   Thumb Code     4  stm32f0xx_it.o(i.HardFault_Handler)
    HasAcc                                   0x08006d81   Thumb Code    20  detection.o(i.HasAcc)
    I2C3Ack                                  0x08006d99   Thumb Code    90  tuner_elite.o(i.I2C3Ack)
    I2C3Ack2                                 0x08006df9   Thumb Code   122  tuner_elite.o(i.I2C3Ack2)
    I2C3In8Bit                               0x08006e79   Thumb Code   118  tuner_elite.o(i.I2C3In8Bit)
    I2C3Out8Bit                              0x08006ef5   Thumb Code   210  tuner_elite.o(i.I2C3Out8Bit)
    I2C3Start                                0x08006fcd   Thumb Code    72  tuner_elite.o(i.I2C3Start)
    I2C3Stop                                 0x08007019   Thumb Code    70  tuner_elite.o(i.I2C3Stop)
    I2C_delay                                0x08007065   Thumb Code    14  tuner_elite.o(i.I2C_delay)
    IR_EXTI7_Config                          0x08007073   Thumb Code   112  irda.o(i.IR_EXTI7_Config)
    IR_EXTI8_Config                          0x080070e5   Thumb Code   110  irda.o(i.IR_EXTI8_Config)
    InitAMPresetStat                         0x08007159   Thumb Code   186  radio.o(i.InitAMPresetStat)
    InitFMPresetStat                         0x08007241   Thumb Code   190  radio.o(i.InitFMPresetStat)
    InitPresetStat                           0x08007331   Thumb Code    12  radio.o(i.InitPresetStat)
    IrdaDeInit                               0x0800733d   Thumb Code    92  irda.o(i.IrdaDeInit)
    IrdaInit                                 0x0800739d   Thumb Code    16  irda.o(i.IrdaInit)
    IsInArray_U8                             0x080073ad   Thumb Code    34  sch_common.o(i.IsInArray_U8)
    IsInData                                 0x080073cf   Thumb Code    28  sch_common.o(i.IsInData)
    IsLeapYear                               0x080073ed   Thumb Code    62  drive.o(i.IsLeapYear)
    KeyInit                                  0x08007431   Thumb Code    24  key.o(i.KeyInit)
    KeyScan                                  0x0800745d   Thumb Code   124  swc.o(i.KeyScan)
    KeyTimer                                 0x080074d9   Thumb Code    84  swc.o(i.KeyTimer)
    Key_Scan_AD                              0x08007531   Thumb Code   140  swc.o(i.Key_Scan_AD)
    Key_Scan_AD2                             0x080075c1   Thumb Code   140  swc.o(i.Key_Scan_AD2)
    M2C_TxService                            0x08007651   Thumb Code   326  app_can.o(i.M2C_TxService)
    McuIapStart                              0x080077a5   Thumb Code   174  bsp.o(i.McuIapStart)
    McuPowerDown                             0x0800787d   Thumb Code   108  drive.o(i.McuPowerDown)
    MeasureAfList                            0x08007915   Thumb Code   318  rds.o(i.MeasureAfList)
    MessageARMPoweroff                       0x08007a95   Thumb Code    58  core.o(i.MessageARMPoweroff)
    MuteOff                                  0x08007ad1   Thumb Code    84  drive.o(i.MuteOff)
    MuteOn                                   0x08007b65   Thumb Code    40  drive.o(i.MuteOn)
    MuteTimeset                              0x08007bc1   Thumb Code    62  drive.o(i.MuteTimeset)
    NMI_Handler                              0x08007c39   Thumb Code     2  stm32f0xx_it.o(i.NMI_Handler)
    NVIC_Init                                0x08007c3d   Thumb Code   106  stm32f0xx_misc.o(i.NVIC_Init)
    PSProc                                   0x08007cad   Thumb Code   760  radio.o(i.PSProc)
    PSStationChk                             0x08008099   Thumb Code    96  radio.o(i.PSStationChk)
    PWM_DeInit                               0x0800810d   Thumb Code    12  bsp.o(i.PWM_DeInit)
    PWM_Init                                 0x0800811d   Thumb Code     2  bsp.o(i.PWM_Init)
    PendSV_Handler                           0x0800811f   Thumb Code     2  stm32f0xx_it.o(i.PendSV_Handler)
    PiSeekProc                               0x08008121   Thumb Code   160  rds.o(i.PiSeekProc)
    PostMessage                              0x080081e1   Thumb Code    30  sch_message.o(i.PostMessage)
    Printf                                   0x0800821b   Thumb Code   230  sch_printf.o(i.Printf)
    ProcessArmCommand                        0x08008301   Thumb Code  2394  armuart.o(i.ProcessArmCommand)
    ProcessArmkey                            0x08008c79   Thumb Code  1190  core.o(i.ProcessArmkey)
    ProcessCore                              0x08009139   Thumb Code    20  core.o(i.ProcessCore)
    ProcessDate                              0x0800914d   Thumb Code   200  drive.o(i.ProcessDate)
    ProcessDetect                            0x08009225   Thumb Code    92  detection.o(i.ProcessDetect)
    ProcessMute                              0x080092a1   Thumb Code   106  drive.o(i.ProcessMute)
    ProcessPanelKey                          0x0800934d   Thumb Code    78  key.o(i.ProcessPanelKey)
    ProcessSwc                               0x080093ad   Thumb Code     8  swc.o(i.ProcessSwc)
    ProcessUart2                             0x080093b5   Thumb Code   278  armuart.o(i.ProcessUart2)
    ProcessVM4Can                            0x0800950d   Thumb Code   128  usart4.o(i.ProcessVM4Can)
    ProcessVMCan                             0x080095b9   Thumb Code   104  usart1.o(i.ProcessVMCan)
    PtySeekProc                              0x0800962d   Thumb Code   280  rds.o(i.PtySeekProc)
    Queue_In                                 0x0800978d   Thumb Code    94  sch_queue.o(i.Queue_In)
    Queue_Init                               0x080097eb   Thumb Code    30  sch_queue.o(i.Queue_Init)
    Queue_Out                                0x08009809   Thumb Code    90  sch_queue.o(i.Queue_Out)
    RCC_AHBPeriphClockCmd                    0x08009865   Thumb Code    28  stm32f0xx_rcc.o(i.RCC_AHBPeriphClockCmd)
    RCC_APB1PeriphClockCmd                   0x08009885   Thumb Code    28  stm32f0xx_rcc.o(i.RCC_APB1PeriphClockCmd)
    RCC_APB1PeriphResetCmd                   0x080098a5   Thumb Code    28  stm32f0xx_rcc.o(i.RCC_APB1PeriphResetCmd)
    RCC_APB2PeriphClockCmd                   0x080098c5   Thumb Code    28  stm32f0xx_rcc.o(i.RCC_APB2PeriphClockCmd)
    RCC_APB2PeriphResetCmd                   0x080098e5   Thumb Code    28  stm32f0xx_rcc.o(i.RCC_APB2PeriphResetCmd)
    RCC_GetClocksFreq                        0x08009905   Thumb Code   468  stm32f0xx_rcc.o(i.RCC_GetClocksFreq)
    RCC_USARTCLKConfig                       0x08009af5   Thumb Code    48  stm32f0xx_rcc.o(i.RCC_USARTCLKConfig)
    RDSAfInit                                0x08009b29   Thumb Code    38  rds.o(i.RDSAfInit)
    RDSAfInitHeader                          0x08009b5d   Thumb Code    18  rds.o(i.RDSAfInitHeader)
    RDSDataClear                             0x08009b7d   Thumb Code   182  rds.o(i.RDSDataClear)
    RDSDataInit                              0x08009c6d   Thumb Code   282  tuner_elite.o(i.RDSDataInit)
    RDSDataInitPlus                          0x08009dbd   Thumb Code    20  tuner_elite.o(i.RDSDataInitPlus)
    RDSEonAfInit                             0x08009dd9   Thumb Code    32  rdseon.o(i.RDSEonAfInit)
    RDSEonAfInsert                           0x08009dfd   Thumb Code    86  rdseon.o(i.RDSEonAfInsert)
    RDSEonElntSearch                         0x08009e59   Thumb Code    86  rdseon.o(i.RDSEonElntSearch)
    RDSEonInit                               0x08009efd   Thumb Code    80  rdseon.o(i.RDSEonInit)
    RDSEonPiAfInsert                         0x08009f81   Thumb Code   162  rdseon.o(i.RDSEonPiAfInsert)
    RDSEonTaSwitchBack                       0x0800a055   Thumb Code    22  rdseon.o(i.RDSEonTaSwitchBack)
    RDSExtAf                                 0x0800a075   Thumb Code   230  rds.o(i.RDSExtAf)
    RDSExtAfHeader                           0x0800a175   Thumb Code    76  rds.o(i.RDSExtAfHeader)
    RDSExtAfMethodA                          0x0800a1d1   Thumb Code   200  rds.o(i.RDSExtAfMethodA)
    RDSExtAfMethodB                          0x0800a2bd   Thumb Code   396  rds.o(i.RDSExtAfMethodB)
    RDSExtBkCRT                              0x0800a471   Thumb Code   550  rds.o(i.RDSExtBkCRT)
    RDSExtBkDRT                              0x0800a711   Thumb Code   666  rds.o(i.RDSExtBkDRT)
    RDSExtBlkB                               0x0800aa45   Thumb Code   272  rds.o(i.RDSExtBlkB)
    RDSExtBlkC                               0x0800ab79   Thumb Code   188  rds.o(i.RDSExtBlkC)
    RDSExtBlkD                               0x0800ac55   Thumb Code   182  rds.o(i.RDSExtBlkD)
    RDSExtCT                                 0x0800ad15   Thumb Code   312  rds.o(i.RDSExtCT)
    RDSExtEonAf                              0x0800aec5   Thumb Code    52  rdseon.o(i.RDSExtEonAf)
    RDSExtEonTa                              0x0800af01   Thumb Code    46  rdseon.o(i.RDSExtEonTa)
    RDSExtEonTaPi                            0x0800af59   Thumb Code   140  rdseon.o(i.RDSExtEonTaPi)
    RDSExtPi                                 0x0800b03d   Thumb Code   336  rds.o(i.RDSExtPi)
    RDSExtPs                                 0x0800b1c1   Thumb Code   498  rds.o(i.RDSExtPs)
    RDSExtPty                                0x0800b411   Thumb Code   392  rds.o(i.RDSExtPty)
    RDSExtTa                                 0x0800b5d1   Thumb Code   346  rds.o(i.RDSExtTa)
    RDSExtTp                                 0x0800b759   Thumb Code   198  rds.o(i.RDSExtTp)
    RDSFetchBlockData                        0x0800b839   Thumb Code  1214  tuner_elite.o(i.RDSFetchBlockData)
    RDSFlagPINew                             0x0800bcfd   Thumb Code    28  tuner_elite.o(i.RDSFlagPINew)
    RDSFmFreqChange                          0x0800bd21   Thumb Code   368  rdsapp.o(i.RDSFmFreqChange)
    RDSGetDataBlock                          0x0800bee5   Thumb Code    20  tuner_elite.o(i.RDSGetDataBlock)
    RDSInit                                  0x0800befd   Thumb Code   112  rdsapp.o(i.RDSInit)
    RDSInsertAF                              0x0800bf85   Thumb Code   146  rds.o(i.RDSInsertAF)
    RDSInt                                   0x0800c039   Thumb Code    16  tuner_elite.o(i.RDSInt)
    RDSSetBlockData                          0x0800c04d   Thumb Code   402  tuner_elite.o(i.RDSSetBlockData)
    RDSSetDataBlock                          0x0800c221   Thumb Code    34  tuner_elite.o(i.RDSSetDataBlock)
    RDSStart                                 0x0800c249   Thumb Code    28  rds.o(i.RDSStart)
    RDSStop                                  0x0800c279   Thumb Code    14  rds.o(i.RDSStop)
    RDSTimerInit                             0x0800c291   Thumb Code   116  rdsapp.o(i.RDSTimerInit)
    RTC_ClearITPendingBit                    0x0800c359   Thumb Code    30  stm32f0xx_rtc.o(i.RTC_ClearITPendingBit)
    RTC_GetITStatus                          0x0800c37d   Thumb Code    72  stm32f0xx_rtc.o(i.RTC_GetITStatus)
    RTC_GetTime                              0x0800c3c9   Thumb Code    84  stm32f0xx_rtc.o(i.RTC_GetTime)
    RTC_IRQHandler                           0x0800c425   Thumb Code    44  stm32f0xx_it.o(i.RTC_IRQHandler)
    RTC_TimeShow                             0x0800c451   Thumb Code    26  rtc_time.o(i.RTC_TimeShow)
    RadDpUpdate                              0x0800c4a1   Thumb Code     2  radio.o(i.RadDpUpdate)
    RadKyAnaly                               0x0800c4a5   Thumb Code  3416  radio.o(i.RadKyAnaly)
    RadSetToDl500ms                          0x0800d1fd   Thumb Code    78  radio.o(i.RadSetToDl500ms)
    Radio7786Poweron                         0x0800d27d   Thumb Code     8  radio.o(i.Radio7786Poweron)
    Radio7786SetFreq                         0x0800d289   Thumb Code    12  tuner_elite.o(i.Radio7786SetFreq)
    RadioBreak                               0x0800d295   Thumb Code    34  radio.o(i.RadioBreak)
    RadioInit                                0x0800d2c1   Thumb Code   248  radio.o(i.RadioInit)
    RadioProc                                0x0800d3fd   Thumb Code   696  radio.o(i.RadioProc)
    RdsDataDecode                            0x0800d76d   Thumb Code    40  rds.o(i.RdsDataDecode)
    RdsExtrProc                              0x0800d7a1   Thumb Code   694  rds.o(i.RdsExtrProc)
    RdsKeyAnaly                              0x0800dac9   Thumb Code   930  rdsapp.o(i.RdsKeyAnaly)
    RdsProc                                  0x0800df29   Thumb Code   288  rdsapp.o(i.RdsProc)
    ReadArmCanStr                            0x0800e081   Thumb Code   136  usart1.o(i.ReadArmCanStr)
    ReadBandMsg                              0x0800e115   Thumb Code    66  radio.o(i.ReadBandMsg)
    ReadPresetMem                            0x0800e171   Thumb Code    88  radio.o(i.ReadPresetMem)
    ReadVM4ArmCanStr                         0x0800e1e1   Thumb Code   152  usart4.o(i.ReadVM4ArmCanStr)
    RemoteInt                                0x0800e28d   Thumb Code   310  irda.o(i.RemoteInt)
    RemoteProc                               0x0800e3f5   Thumb Code   758  irda.o(i.RemoteProc)
    ReportARM2UPDate                         0x0800e711   Thumb Code    98  armuart.o(i.ReportARM2UPDate)
    ReportAccState                           0x0800e779   Thumb Code    68  armuart.o(i.ReportAccState)
    ReportAccinfo                            0x0800e7c1   Thumb Code   128  armuart.o(i.ReportAccinfo)
    ReportChangeSource                       0x0800e849   Thumb Code    64  armuart.o(i.ReportChangeSource)
    ReportControlBackLight                   0x0800e889   Thumb Code   202  armuart.o(i.ReportControlBackLight)
    ReportDate                               0x0800e959   Thumb Code   534  armuart.o(i.ReportDate)
    ReportDeviceStatus                       0x0800eb79   Thumb Code   240  armuart.o(i.ReportDeviceStatus)
    ReportFastback                           0x0800ec75   Thumb Code   144  armuart.o(i.ReportFastback)
    ReportFirstBAT                           0x0800ed05   Thumb Code   110  armuart.o(i.ReportFirstBAT)
    ReportHandShake                          0x0800ed79   Thumb Code    66  armuart.o(i.ReportHandShake)
    ReportKeySuccess                         0x0800edbb   Thumb Code    66  armuart.o(i.ReportKeySuccess)
    ReportMcuPowerinfo                       0x0800edfd   Thumb Code    88  armuart.o(i.ReportMcuPowerinfo)
    ReportMcuVisions                         0x0800ee59   Thumb Code   168  armuart.o(i.ReportMcuVisions)
    ReportRadioArea                          0x0800ef11   Thumb Code   100  armuart.o(i.ReportRadioArea)
    ReportRadioBaseInfo                      0x0800ef79   Thumb Code   628  armuart.o(i.ReportRadioBaseInfo)
    ReportRadioPreListinfo                   0x0800f205   Thumb Code   400  armuart.o(i.ReportRadioPreListinfo)
    ReportRadioSignalinfo                    0x0800f3b1   Thumb Code   164  armuart.o(i.ReportRadioSignalinfo)
    ReportRdsPsinfo                          0x0800f459   Thumb Code   114  armuart.o(i.ReportRdsPsinfo)
    ReportRdsRTinfo                          0x0800f4d5   Thumb Code   116  armuart.o(i.ReportRdsRTinfo)
    ReportSWCTable                           0x0800f54d   Thumb Code   282  armuart.o(i.ReportSWCTable)
    ReportSetVolume                          0x0800f679   Thumb Code    66  armuart.o(i.ReportSetVolume)
    ReportSetinfo                            0x0800f6bb   Thumb Code    66  armuart.o(i.ReportSetinfo)
    ResetExternDevice                        0x0800f6fd   Thumb Code    40  drive.o(i.ResetExternDevice)
    ResetStudyKeyNum                         0x0800f725   Thumb Code    48  swc.o(i.ResetStudyKeyNum)
    RestoreAfSt                              0x0800f75d   Thumb Code    62  rds.o(i.RestoreAfSt)
    RestoreStatNum                           0x0800f7b1   Thumb Code    42  radio.o(i.RestoreStatNum)
    RestoreStatNum1                          0x0800f7f1   Thumb Code    50  radio.o(i.RestoreStatNum1)
    RptKyCk                                  0x0800f83d   Thumb Code    26  irda.o(i.RptKyCk)
    RstRmtDecode                             0x0800f859   Thumb Code    56  irda.o(i.RstRmtDecode)
    STChk                                    0x0800f8a5   Thumb Code   150  radio.o(i.STChk)
    SVC_Handler                              0x0800f961   Thumb Code     2  stm32f0xx_it.o(i.SVC_Handler)
    SYSCFG_EXTILineConfig                    0x0800f965   Thumb Code    60  stm32f0xx_syscfg.o(i.SYSCFG_EXTILineConfig)
    SaveCurBandMsg                           0x0800f9a5   Thumb Code    86  radio.o(i.SaveCurBandMsg)
    SaveEncodekey                            0x0800fa11   Thumb Code    66  key.o(i.SaveEncodekey)
    SaveLongkeyRelease                       0x0800fa5d   Thumb Code    84  key.o(i.SaveLongkeyRelease)
    SaveOriginalStat                         0x0800fabd   Thumb Code    10  radio.o(i.SaveOriginalStat)
    SaveRecombinationkey                     0x0800fad1   Thumb Code    66  key.o(i.SaveRecombinationkey)
    Savekey                                  0x0800fb1d   Thumb Code   424  key.o(i.Savekey)
    Saveswckey                               0x0800fcd5   Thumb Code    90  swc.o(i.Saveswckey)
    ScanKey                                  0x0800fd2f   Thumb Code    24  key.o(i.ScanKey)
    ScanPanelkey                             0x0800fd49   Thumb Code   286  key.o(i.ScanPanelkey)
    ScanProc                                 0x0800fe8d   Thumb Code   226  radio.o(i.ScanProc)
    ScanSwckey                               0x0800ffa1   Thumb Code   232  swc.o(i.ScanSwckey)
    ScanVolEncodekey                         0x080100a5   Thumb Code   232  key.o(i.ScanVolEncodekey)
    SetLinUartBaud                           0x080101a5   Thumb Code    98  usart1.o(i.SetLinUartBaud)
    SetRadPwrDn                              0x08010221   Thumb Code   128  radio.o(i.SetRadPwrDn)
    SetRadPwrOff                             0x080102b5   Thumb Code    68  radio.o(i.SetRadPwrOff)
    SpKyCk                                   0x08010311   Thumb Code    34  irda.o(i.SpKyCk)
    StartChgBand                             0x08010335   Thumb Code   176  radio.o(i.StartChgBand)
    StartChkStat                             0x08010409   Thumb Code    22  radio.o(i.StartChkStat)
    StartWrPll                               0x08010429   Thumb Code    86  radio.o(i.StartWrPll)
    StatNumDec                               0x08010495   Thumb Code   208  radio.o(i.StatNumDec)
    StatNumInc                               0x08010579   Thumb Code   222  radio.o(i.StatNumInc)
    SwcInit                                  0x0801066d   Thumb Code     8  swc.o(i.SwcInit)
    SysDelay                                 0x08010679   Thumb Code    24  bsp.o(i.SysDelay)
    SysDelay10us                             0x08010695   Thumb Code     2  bsp.o(i.SysDelay10us)
    SysTick_Handler                          0x08010697   Thumb Code     2  stm32f0xx_it.o(i.SysTick_Handler)
    SysUartInit                              0x08010699   Thumb Code   382  mw_uart.o(i.SysUartInit)
    SysWait1Us                               0x0801082d   Thumb Code    28  sch_common.o(i.SysWait1Us)
    SysWaitUs                                0x08010849   Thumb Code    20  sch_common.o(i.SysWaitUs)
    SystemClkDown                            0x0801085d   Thumb Code   160  bsp.o(i.SystemClkDown)
    SystemInit                               0x08010905   Thumb Code   216  system_stm32f0xx.o(i.SystemInit)
    SystemPowerOff                           0x080109e9   Thumb Code   256  drive.o(i.SystemPowerOff)
    SystemPowerOn                            0x08010af5   Thumb Code   202  drive.o(i.SystemPowerOn)
    SystemSleepWake                          0x08010bcd   Thumb Code     8  drive.o(i.SystemSleepWake)
    SystemTimereset                          0x08010bd5   Thumb Code    40  drive.o(i.SystemTimereset)
    SystemTimeset                            0x08010c21   Thumb Code   582  drive.o(i.SystemTimeset)
    TASK_Can_Pro                             0x08010ecd   Thumb Code     8  app_can.o(i.TASK_Can_Pro)
    TIM14_IRQHandler                         0x08010ed5   Thumb Code   280  stm32f0xx_it.o(i.TIM14_IRQHandler)
    TIM2_IRQHandler                          0x08011035   Thumb Code    10  stm32f0xx_it.o(i.TIM2_IRQHandler)
    TIM_Cmd                                  0x08011041   Thumb Code    24  stm32f0xx_tim.o(i.TIM_Cmd)
    TIM_GetCounter                           0x0801105d   Thumb Code     6  stm32f0xx_tim.o(i.TIM_GetCounter)
    TIM_ITConfig                             0x08011063   Thumb Code    20  stm32f0xx_tim.o(i.TIM_ITConfig)
    TIM_SetAutoreload                        0x08011077   Thumb Code     4  stm32f0xx_tim.o(i.TIM_SetAutoreload)
    TIM_SetCounter                           0x0801107b   Thumb Code     4  stm32f0xx_tim.o(i.TIM_SetCounter)
    TIM_TimeBaseInit                         0x08011081   Thumb Code    90  stm32f0xx_tim.o(i.TIM_TimeBaseInit)
    Time14Deinit                             0x080110fd   Thumb Code    40  bsp.o(i.Time14Deinit)
    Time14Init                               0x08011129   Thumb Code   118  bsp.o(i.Time14Init)
    Timer2Init                               0x080111ad   Thumb Code    74  irda.o(i.Timer2Init)
    TpSeekProc                               0x080111f9   Thumb Code   146  rds.o(i.TpSeekProc)
    TrafficProc                              0x080112ad   Thumb Code   364  rds.o(i.TrafficProc)
    TransmitKey                              0x0801144d   Thumb Code   210  key.o(i.TransmitKey)
    TunAMParmStartAddr                       0x08011529   Thumb Code   144  radio.o(i.TunAMParmStartAddr)
    TunFMORITParmStartAddr                   0x080115e1   Thumb Code     4  radio.o(i.TunFMORITParmStartAddr)
    TunFMParmStartAddr                       0x080115e9   Thumb Code   128  radio.o(i.TunFMParmStartAddr)
    TunParmStartAddr                         0x08011695   Thumb Code   280  radio.o(i.TunParmStartAddr)
    Tuner10msTimer                           0x080117fd   Thumb Code    38  tuner_elite.o(i.Tuner10msTimer)
    TunerChangeBand                          0x0801182d   Thumb Code   206  tuner_elite.o(i.TunerChangeBand)
    TunerReadAFSeekStatus                    0x0801190d   Thumb Code     8  tuner_elite.o(i.TunerReadAFSeekStatus)
    TunerSeekOff                             0x08011915   Thumb Code    12  tuner_elite.o(i.TunerSeekOff)
    TunerSeekOn                              0x08011921   Thumb Code    18  tuner_elite.o(i.TunerSeekOn)
    TunerSetAFChangeFreq                     0x08011939   Thumb Code    76  tuner_elite.o(i.TunerSetAFChangeFreq)
    TunerSetAFCheck                          0x08011995   Thumb Code    76  tuner_elite.o(i.TunerSetAFCheck)
    TunerSetAFEnd                            0x080119f1   Thumb Code    82  tuner_elite.o(i.TunerSetAFEnd)
    TunerSetFreq                             0x08011a59   Thumb Code   104  tuner_elite.o(i.TunerSetFreq)
    TunerStartupSeq                          0x08011ad9   Thumb Code   440  tuner_elite.o(i.TunerStartupSeq)
    USART1_IRQHandler                        0x08011ccd   Thumb Code   162  stm32f0xx_it.o(i.USART1_IRQHandler)
    USART2_IRQHandler                        0x08011d91   Thumb Code   164  stm32f0xx_it.o(i.USART2_IRQHandler)
    USART3_4_IRQHandler                      0x08011e51   Thumb Code   130  stm32f0xx_it.o(i.USART3_4_IRQHandler)
    USART_ClearFlag                          0x08011ef1   Thumb Code     4  stm32f0xx_usart.o(i.USART_ClearFlag)
    USART_ClearITPendingBit                  0x08011ef5   Thumb Code    18  stm32f0xx_usart.o(i.USART_ClearITPendingBit)
    USART_Cmd                                0x08011f07   Thumb Code    24  stm32f0xx_usart.o(i.USART_Cmd)
    USART_DeInit                             0x08011f21   Thumb Code   108  stm32f0xx_usart.o(i.USART_DeInit)
    USART_GetFlagStatus                      0x08011f9d   Thumb Code    20  stm32f0xx_usart.o(i.USART_GetFlagStatus)
    USART_ITConfig                           0x08011fb1   Thumb Code    66  stm32f0xx_usart.o(i.USART_ITConfig)
    USART_Init                               0x08011ff5   Thumb Code   214  stm32f0xx_usart.o(i.USART_Init)
    USART_ReceiveData                        0x080120dd   Thumb Code    10  stm32f0xx_usart.o(i.USART_ReceiveData)
    USART_SendData                           0x080120e7   Thumb Code     8  stm32f0xx_usart.o(i.USART_SendData)
    Uart1Deinit                              0x080120f1   Thumb Code   142  bsp.o(i.Uart1Deinit)
    Uart1SendStr                             0x08012185   Thumb Code    64  usart1.o(i.Uart1SendStr)
    Uart2Deinit                              0x080121d5   Thumb Code   106  bsp.o(i.Uart2Deinit)
    Uart2Init                                0x08012245   Thumb Code   210  bsp.o(i.Uart2Init)
    Uart2SendStr                             0x08012325   Thumb Code   104  armuart.o(i.Uart2SendStr)
    Uart4Deinit                              0x080123dd   Thumb Code    82  bsp.o(i.Uart4Deinit)
    Uart4SendStr                             0x08012441   Thumb Code    64  usart4.o(i.Uart4SendStr)
    UartBufInit                              0x08012491   Thumb Code    36  mw_uart.o(i.UartBufInit)
    UartSendData8                            0x080124b9   Thumb Code    20  mw_uart.o(i.UartSendData8)
    UartTxData_Direct                        0x080124d1   Thumb Code    52  mw_uart.o(i.UartTxData_Direct)
    VM4CanInit                               0x08012509   Thumb Code    24  usart4.o(i.VM4CanInit)
    VMCanInit                                0x08012535   Thumb Code    24  usart1.o(i.VMCanInit)
    VectorRemap                              0x08012561   Thumb Code    56  bsp.o(i.VectorRemap)
    Wr7786CkStatProc                         0x080125a1   Thumb Code   280  radio.o(i.Wr7786CkStatProc)
    Wr7786PllProc                            0x080126f9   Thumb Code   362  radio.o(i.Wr7786PllProc)
    WritePresetMem                           0x080128a5   Thumb Code    80  radio.o(i.WritePresetMem)
    __ARM_common_switch8                     0x08012909   Thumb Code    28  core.o(i.__ARM_common_switch8)
    main                                     0x080129dd   Thumb Code   202  main.o(i.main)
    sch_memcpy                               0x08012b41   Thumb Code    28  sch_common.o(i.sch_memcpy)
    sch_memset                               0x08012b5d   Thumb Code    22  sch_common.o(i.sch_memset)
    __I$use$fp                               0x08012b72   Number         0  usenofp.o(x$fpl$usenofp)
    leapYearMaxDateTab                       0x08012b72   Data          13  drive.o(.constdata)
    comYearMaxDateTab                        0x08012b7f   Data          13  drive.o(.constdata)
    CanBufAddr                               0x08012b8c   Data          16  mw_can.o(.constdata)
    FMPrmTab                                 0x08012b9c   Data          10  radio.o(.constdata)
    FMPrmEurTab                              0x08012ba6   Data          10  radio.o(.constdata)
    FMPrmUSATab                              0x08012bb0   Data          10  radio.o(.constdata)
    FMPrmLATINTab                            0x08012bba   Data          10  radio.o(.constdata)
    FMPrmAusTab                              0x08012bc4   Data          10  radio.o(.constdata)
    FMPrmRussiaTab                           0x08012bce   Data          10  radio.o(.constdata)
    FMORTPrmTab                              0x08012bd8   Data          10  radio.o(.constdata)
    FMPrmJapenTab                            0x08012be2   Data          10  radio.o(.constdata)
    FMPrmBrazilTab                           0x08012bec   Data          10  radio.o(.constdata)
    AMPrmTab                                 0x08012bf6   Data          10  radio.o(.constdata)
    AMPrmEurTab                              0x08012c00   Data          10  radio.o(.constdata)
    AMPrmUSATab                              0x08012c0a   Data          10  radio.o(.constdata)
    AMPrmLATINTab                            0x08012c14   Data          10  radio.o(.constdata)
    AMPrmAusTab                              0x08012c1e   Data          10  radio.o(.constdata)
    AMPrmRussiaTab                           0x08012c28   Data          10  radio.o(.constdata)
    AMPrmJapanTab                            0x08012c32   Data          10  radio.o(.constdata)
    LWPrmJapanTab                            0x08012c3c   Data          10  radio.o(.constdata)
    AMPrmBrazilTab                           0x08012c46   Data          10  radio.o(.constdata)
    FMStatInitTab                            0x08012c50   Data          36  radio.o(.constdata)
    FMStatInitEurTab                         0x08012c74   Data          36  radio.o(.constdata)
    FMStatInitUSATab                         0x08012c98   Data          36  radio.o(.constdata)
    FMStatInitLatinTab                       0x08012cbc   Data          36  radio.o(.constdata)
    FMStatInitAusTab                         0x08012ce0   Data          36  radio.o(.constdata)
    FMStatInitRussiaTab                      0x08012d04   Data          36  radio.o(.constdata)
    FMStatInitJapenTab                       0x08012d28   Data          36  radio.o(.constdata)
    FMStatInitBrazilTab                      0x08012d4c   Data          36  radio.o(.constdata)
    FMORTStatInitTab                         0x08012d70   Data          12  radio.o(.constdata)
    AMStatInitTab                            0x08012d7c   Data          24  radio.o(.constdata)
    AMStatInitEurTab                         0x08012d94   Data          24  radio.o(.constdata)
    AMStatInitUSATab                         0x08012dac   Data          24  radio.o(.constdata)
    AMStatInitLATINTab                       0x08012dc4   Data          24  radio.o(.constdata)
    AMStatInitAusTab                         0x08012ddc   Data          24  radio.o(.constdata)
    AMStatInitRussiaTab                      0x08012df4   Data          24  radio.o(.constdata)
    AMStatInitJapenTab                       0x08012e0c   Data          24  radio.o(.constdata)
    LWStatInitJapenTab                       0x08012e24   Data          12  radio.o(.constdata)
    AMStatInitBrazilTab                      0x08012e30   Data          24  radio.o(.constdata)
    Area                                     0x08012e48   Data        1848  radio.o(.constdata)
    UartBufAddr                              0x08013580   Data          48  mw_uart.o(.constdata)
    Region$$Table$$Base                      0x08015d18   Number         0  anon$$obj.o(Region$$Table)
    Region$$Table$$Limit                     0x08015d38   Number         0  anon$$obj.o(Region$$Table)
    Jump_To_Iap                              0x200000c4   Data           4  bsp.o(.data)
    IAPJumpAddress                           0x200000c8   Data           4  bsp.o(.data)
    EXTI_InitStructure                       0x200000cc   Data           8  bsp.o(.data)
    NVIC_InitStructure                       0x200000d4   Data           3  bsp.o(.data)
    bootflag                                 0x200000d8   Data           2  bsp.o(.data)
    bwakeupfor                               0x200000da   Data           1  core.o(.data)
    fastback                                 0x200000db   Data           1  core.o(.data)
    sysflag0                                 0x200000dc   Data           1  core.o(.data)
    rAreaSt                                  0x200000dd   Data           1  core.o(.data)
    armsetpowerorsleepFlag                   0x200000de   Data           1  core.o(.data)
    armsetsleeptime                          0x200000df   Data           1  core.o(.data)
    bfirstbat                                0x200000e0   Data           1  core.o(.data)
    btracedata                               0x200000e1   Data           1  core.o(.data)
    bfastarm2updatetimeout                   0x200000e2   Data           2  core.o(.data)
    radioinfoState1                          0x200000e4   Data           1  core.o(.data)
    radioinfoState2                          0x200000e5   Data           1  core.o(.data)
    rdsinfoState3                            0x200000e6   Data           1  core.o(.data)
    wakeupdetectHas                          0x200000e7   Data           1  detection.o(.data)
    wakeupdetectNo                           0x200000e8   Data           1  detection.o(.data)
    wakeupFlag                               0x200000e9   Data           1  detection.o(.data)
    accdetectTimeNo                          0x200000ea   Data           1  detection.o(.data)
    accdetectTimeHas                         0x200000eb   Data           1  detection.o(.data)
    accexistFlag                             0x200000ec   Data           1  detection.o(.data)
    rBackLightLevel                          0x200000ed   Data           1  detection.o(.data)
    backdetectTimeHas                        0x200000ee   Data           1  detection.o(.data)
    backdetectTimeNo                         0x200000ef   Data           1  detection.o(.data)
    backexistFlag                            0x200000f0   Data           1  detection.o(.data)
    brakedetectTimeHas                       0x200000f1   Data           1  detection.o(.data)
    brakedetectTimeNo                        0x200000f2   Data           1  detection.o(.data)
    brakeexistFlag                           0x200000f3   Data           1  detection.o(.data)
    carilldetectTimeHas                      0x200000f4   Data           1  detection.o(.data)
    carilldetectTimeNo                       0x200000f5   Data           1  detection.o(.data)
    carillexistFlag                          0x200000f6   Data           1  detection.o(.data)
    oldbackexistFlag                         0x200000f7   Data           1  detection.o(.data)
    oldcarillexistFlag                       0x200000f8   Data           1  detection.o(.data)
    oldbrakeexistFlag                        0x200000f9   Data           1  detection.o(.data)
    batok                                    0x200000fa   Data           1  detection.o(.data)
    timerInterruptAdd                        0x200000fe   Data           1  drive.o(.data)
    system10ms                               0x200000ff   Data           1  drive.o(.data)
    btime10ms                                0x20000100   Data           1  drive.o(.data)
    btime100ms                               0x20000101   Data           1  drive.o(.data)
    btime200ms                               0x20000102   Data           1  drive.o(.data)
    btime500ms                               0x20000103   Data           1  drive.o(.data)
    btime1s                                  0x20000104   Data           1  drive.o(.data)
    bradio10ms                               0x20000105   Data           1  drive.o(.data)
    bswc10ms                                 0x20000106   Data           1  drive.o(.data)
    bkey10ms                                 0x20000107   Data           1  drive.o(.data)
    bother10ms                               0x20000108   Data           1  drive.o(.data)
    bmuteflag                                0x20000109   Data           1  drive.o(.data)
    bmutetime                                0x2000010a   Data           2  drive.o(.data)
    bArmmute                                 0x2000010c   Data           1  drive.o(.data)
    bawuFlag                                 0x2000010d   Data           1  drive.o(.data)
    externAMP                                0x2000010e   Data           1  drive.o(.data)
    externANT                                0x2000010f   Data           1  drive.o(.data)
    armsettimeStatus                         0x20000110   Data           1  drive.o(.data)
    scanpanelkeyLeftStatus                   0x20000111   Data           1  key.o(.data)
    scanpanelkeyRightStatus                  0x20000112   Data           1  key.o(.data)
    bencodekeydisflag                        0x20000113   Data           1  key.o(.data)
    volEncodeCurrentState                    0x20000114   Data           1  key.o(.data)
    tunEncodeCurrentState                    0x20000115   Data           1  key.o(.data)
    bpowerkey                                0x20000116   Data           1  key.o(.data)
    bwaitpowerkey                            0x20000117   Data           1  key.o(.data)
    rKeyResult                               0x20000118   Data           1  key.o(.data)
    keysaveindex                             0x20000119   Data           1  key.o(.data)
    keygetindex                              0x2000011a   Data           1  key.o(.data)
    bpowerkeypresstime                       0x2000011b   Data           1  key.o(.data)
    usart2SendSave                           0x2000012c   Data           2  armuart.o(.data)
    usart2SendIndex                          0x2000012e   Data           2  armuart.o(.data)
    usart2Sendbusy                           0x20000130   Data           1  armuart.o(.data)
    usart2Receivesave                        0x20000132   Data           2  armuart.o(.data)
    usart2Receiveget                         0x20000134   Data           2  armuart.o(.data)
    armcmd_cnt                               0x20000136   Data           1  armuart.o(.data)
    rAccSt                                   0x20000137   Data           1  armuart.o(.data)
    armsourceState                           0x20000138   Data           1  armuart.o(.data)
    forRadioAreaMute                         0x20000139   Data           1  armuart.o(.data)
    bpoweronFlag                             0x2000013a   Data           1  armuart.o(.data)
    AAC_AirHeatL                             0x2000013b   Data           1  armuart.o(.data)
    AAC_AirHeatR                             0x2000013c   Data           1  armuart.o(.data)
    scanswckeyStatus                         0x2000013e   Data           1  swc.o(.data)
    CH_Arry                                  0x2000013f   Data           2  swc.o(.data)
    AD_SW_Tab2                               0x20000142   Data         170  swc.o(.data)
    AD_SW_Tab                                0x200001ec   Data         170  swc.o(.data)
    usart1SendSave                           0x2000029c   Data           2  usart1.o(.data)
    usart1SendIndex                          0x2000029e   Data           2  usart1.o(.data)
    usart1Sendbusy                           0x200002a0   Data           1  usart1.o(.data)
    usart1Receivesave                        0x200002a2   Data           2  usart1.o(.data)
    usart1Receiveget                         0x200002a4   Data           2  usart1.o(.data)
    bCanTimeour                              0x200002a6   Data           1  usart1.o(.data)
    bCan4Timeour                             0x200002a7   Data           1  usart1.o(.data)
    canbaudRate                              0x200002a8   Data           4  usart1.o(.data)
    CAN0_TX_QUEUE                            0x200002ac   Data          16  mw_can.o(.data)
    CAN0_RX_QUEUE                            0x200002bc   Data          16  mw_can.o(.data)
    CAN1_TX_QUEUE                            0x200002cc   Data          16  mw_can.o(.data)
    CAN1_RX_QUEUE                            0x200002dc   Data          16  mw_can.o(.data)
    bsystem10msflag                          0x200002ec   Data           2  mw_can.o(.data)
    Can_Arry                                 0x200002f0   Data           4  mw_can.o(.data)
    rIrdRecSt                                0x20000304   Data           1  irda.o(.data)
    Rmt_X4ms                                 0x20000305   Data           1  irda.o(.data)
    Testtime_x10ms                           0x20000308   Data           4  irda.o(.data)
    Testtime_x100ms                          0x2000030c   Data           4  irda.o(.data)
    Rmt_time_cnt                             0x20000310   Data           4  irda.o(.data)
    cRmtDataBits                             0x20000314   Data           1  irda.o(.data)
    rRmtSt                                   0x20000315   Data           1  irda.o(.data)
    RmtKyBak                                 0x20000318   Data           4  irda.o(.data)
    Remote_cnt_st                            0x2000031c   Data           1  irda.o(.data)
    RxRemoteBuff                             0x2000031d   Data           4  irda.o(.data)
    RmtFlag                                  0x20000321   Data           1  irda.o(.data)
    m_iIrCode                                0x20000322   Data           2  irda.o(.data)
    m_iCodeType                              0x20000324   Data           1  irda.o(.data)
    g_IrDAKeyMap                             0x20000325   Data          40  irda.o(.data)
    g_SWIrDAKeyMap                           0x2000034d   Data          40  irda.o(.data)
    FM_RDS_TP                                0x20000376   Data           1  radio.o(.data)
    FM_RDS_PTY                               0x20000377   Data           1  radio.o(.data)
    FM_RDS_PI                                0x20000378   Data           2  radio.o(.data)
    FM_RDS_RdsFifoUsed                       0x2000037a   Data           1  radio.o(.data)
    FM_RDS_BleA                              0x2000037b   Data           1  radio.o(.data)
    FM_RDS_BleB                              0x2000037c   Data           1  radio.o(.data)
    FM_RDS_BleC                              0x2000037d   Data           1  radio.o(.data)
    FM_RDS_BleCp                             0x2000037e   Data           1  radio.o(.data)
    FM_RDS_BleD                              0x2000037f   Data           1  radio.o(.data)
    FM_RDS_BlockA                            0x20000380   Data           2  radio.o(.data)
    FM_RDS_BlockB                            0x20000382   Data           2  radio.o(.data)
    FM_RDS_BlockC                            0x20000384   Data           2  radio.o(.data)
    FM_RDS_BlockCp                           0x20000386   Data           2  radio.o(.data)
    FM_RDS_BlockD                            0x20000388   Data           2  radio.o(.data)
    rSi475xCkStationSt                       0x2000038a   Data           1  radio.o(.data)
    cDTSParmIndex                            0x2000038b   Data           1  radio.o(.data)
    rSi475xDataBuff1                         0x2000038c   Data           7  radio.o(.data)
    FMAsStat                                 0x20000394   Data           2  radio.o(.data)
    AMAsStat                                 0x20000396   Data           2  radio.o(.data)
    cBand                                    0x20000398   Data           1  radio.o(.data)
    cReqBand                                 0x20000399   Data           1  radio.o(.data)
    cBandBak                                 0x2000039a   Data           1  radio.o(.data)
    cRadStatNum                              0x2000039c   Data           2  radio.o(.data)
    ArmTxFreData                             0x2000039e   Data           2  radio.o(.data)
    OriginStNum                              0x200003a0   Data           2  radio.o(.data)
    cRadStatBak                              0x200003a2   Data           2  radio.o(.data)
    cPSNum                                   0x200003a4   Data           1  radio.o(.data)
    cReqPSNum                                0x200003a5   Data           1  radio.o(.data)
    cFMASNum                                 0x200003a6   Data           1  radio.o(.data)
    cFMOrtNum                                0x200003a7   Data           1  radio.o(.data)
    cAMASNum                                 0x200003a8   Data           1  radio.o(.data)
    cSWASNum                                 0x200003a9   Data           1  radio.o(.data)
    cPSNumBak                                0x200003aa   Data           1  radio.o(.data)
    SMeterBuff                               0x200003ab   Data           6  radio.o(.data)
    FreData1                                 0x200003b2   Data           2  radio.o(.data)
    rRadMainSt                               0x200003b4   Data           1  radio.o(.data)
    rRadSubSt                                0x200003b5   Data           1  radio.o(.data)
    Rad_X64ms                                0x200003b6   Data           1  radio.o(.data)
    Rad_X4ms                                 0x200003b7   Data           1  radio.o(.data)
    Rad_Seek_X4ms                            0x200003b8   Data           1  radio.o(.data)
    Rad_Err_X4ms                             0x200003b9   Data           1  radio.o(.data)
    Rad_ChkStat_X4ms                         0x200003ba   Data           2  radio.o(.data)
    Rad_SMeter_X64ms                         0x200003bc   Data           1  radio.o(.data)
    Rad_SMeter_X256ms                        0x200003bd   Data           1  radio.o(.data)
    rRadMeterLevel                           0x200003be   Data           2  radio.o(.data)
    rRadSTLevel                              0x200003c0   Data           1  radio.o(.data)
    rRAD_WAM                                 0x200003c1   Data           1  radio.o(.data)
    rRAD_USN                                 0x200003c2   Data           1  radio.o(.data)
    rRAD_SNR                                 0x200003c3   Data           1  radio.o(.data)
    rRadFreOffset                            0x200003c4   Data           1  radio.o(.data)
    Manu5STmr_X512ms                         0x200003c5   Data           1  radio.o(.data)
    rPrgmPllSt                               0x200003c6   Data           1  radio.o(.data)
    ChkStatSt                                0x200003c7   Data           1  radio.o(.data)
    rRadDispSt                               0x200003c8   Data           1  radio.o(.data)
    DevInitSt                                0x200003c9   Data           1  radio.o(.data)
    rRadTmpDpSt                              0x200003ca   Data           1  radio.o(.data)
    rPtyMusicSum                             0x200003cb   Data           1  radio.o(.data)
    rPtySpeechSum                            0x200003cc   Data           1  radio.o(.data)
    rRadFlg0                                 0x200003cd   Data           1  radio.o(.data)
    rRadFlg1                                 0x200003ce   Data           1  radio.o(.data)
    rRadFlg2                                 0x200003cf   Data           1  radio.o(.data)
    rRadFlg3                                 0x200003d0   Data           1  radio.o(.data)
    rRadStatFlg0                             0x200003d1   Data           1  radio.o(.data)
    rRadStatFlg1                             0x200003d2   Data           1  radio.o(.data)
    rRadStatFlg2                             0x200003d3   Data           1  radio.o(.data)
    rRadStatFlg3                             0x200003d4   Data           1  radio.o(.data)
    usart4SendSave                           0x200003d6   Data           2  usart4.o(.data)
    usart4SendIndex                          0x200003d8   Data           2  usart4.o(.data)
    usart4Sendbusy                           0x200003da   Data           1  usart4.o(.data)
    usart4Receivesave                        0x200003dc   Data           2  usart4.o(.data)
    usart4Receiveget                         0x200003de   Data           2  usart4.o(.data)
    CancommandReceiveget                     0x200003e0   Data           2  usart4.o(.data)
    IO_CAN_R_EXIST                           0x200003e2   Data           1  usart4.o(.data)
    IO_CAN_R_EXIST_Timer                     0x200003e3   Data           1  usart4.o(.data)
    MESSAGE_QUEUE                            0x200003e4   Data         144  sch_message.o(.data)
    UART0_TX_QUEUE                           0x20000474   Data          16  mw_uart.o(.data)
    UART0_RX_QUEUE                           0x20000484   Data          16  mw_uart.o(.data)
    UART1_TX_QUEUE                           0x20000494   Data          16  mw_uart.o(.data)
    UART1_RX_QUEUE                           0x200004a4   Data          16  mw_uart.o(.data)
    UART2_TX_QUEUE                           0x200004b4   Data          16  mw_uart.o(.data)
    UART2_RX_QUEUE                           0x200004c4   Data          16  mw_uart.o(.data)
    UART3_TX_QUEUE                           0x200004d4   Data          16  mw_uart.o(.data)
    UART3_RX_QUEUE                           0x200004e4   Data          16  mw_uart.o(.data)
    UART4_TX_QUEUE                           0x200004f4   Data          16  mw_uart.o(.data)
    UART4_RX_QUEUE                           0x20000504   Data          16  mw_uart.o(.data)
    UART5_TX_QUEUE                           0x20000514   Data          16  mw_uart.o(.data)
    UART5_RX_QUEUE                           0x20000524   Data          16  mw_uart.o(.data)
    Uart_Arry                                0x20000534   Data          20  mw_uart.o(.data)
    cRdsPiChkCnt                             0x20000548   Data           1  rds.o(.data)
    rRdsMainSt                               0x20000549   Data           1  rds.o(.data)
    rRdsAfDetSt                              0x2000054a   Data           1  rds.o(.data)
    rRdsAfSt                                 0x2000054b   Data           1  rds.o(.data)
    rRdsSubSt                                0x2000054c   Data           1  rds.o(.data)
    rRdsFlag                                 0x2000054d   Data           1  rds.o(.data)
    rRdsFlag1                                0x2000054e   Data           1  rds.o(.data)
    rRdsFlag2                                0x2000054f   Data           1  rds.o(.data)
    rRdsFlag3                                0x20000550   Data           1  rds.o(.data)
    rRdsFlag4                                0x20000551   Data           1  rds.o(.data)
    rRdsFlag5                                0x20000552   Data           1  rds.o(.data)
    rRdsFlag6                                0x20000553   Data           1  rds.o(.data)
    rRdsCurSR32                              0x20000554   Data           2  rds.o(.data)
    rRdsCrch                                 0x20000556   Data           1  rds.o(.data)
    rRdsCrcl                                 0x20000557   Data           1  rds.o(.data)
    cRdsCnt                                  0x20000558   Data           1  rds.o(.data)
    cRdsBits                                 0x20000559   Data           1  rds.o(.data)
    rRdsBlock                                0x2000055a   Data           1  rds.o(.data)
    rRdsSyncLevel                            0x2000055b   Data           1  rds.o(.data)
    rRdsPsStat                               0x2000055c   Data           1  rds.o(.data)
    rRdsRTStat                               0x2000055d   Data           1  rds.o(.data)
    rRdsRTFlag                               0x20000560   Data           4  rds.o(.data)
    rRdsGbsStat                              0x20000564   Data           1  rds.o(.data)
    rRdsSyncSt                               0x20000565   Data           1  rds.o(.data)
    rRdsSR                                   0x20000568   Data           4  rds.o(.data)
    cRdsBitStk                               0x2000056c   Data           3  rds.o(.data)
    rRdsBlkStk                               0x2000056f   Data           3  rds.o(.data)
    rRdsAfCtrl1                              0x20000572   Data           1  rds.o(.data)
    rRdsRevdAfNum                            0x20000573   Data           1  rds.o(.data)
    rRdsStorAfNb                             0x20000574   Data           1  rds.o(.data)
    rRdsAFStatBak                            0x20000575   Data           1  rds.o(.data)
    rRdsAfFirst                              0x20000576   Data           1  rds.o(.data)
    rRdsDispSt                               0x20000577   Data           1  rds.o(.data)
    RdsExtr_X4ms                             0x20000578   Data           1  rds.o(.data)
    RdsSync_X8ms                             0x20000579   Data           1  rds.o(.data)
    RdsPty_X32ms                             0x2000057a   Data           1  rds.o(.data)
    RdsPty_X128ms                            0x2000057b   Data           1  rds.o(.data)
    rRdRDS_X4ms                              0x2000057c   Data           1  rds.o(.data)
    RdsTraffic_X64ms                         0x2000057d   Data           1  rds.o(.data)
    RdsMeasure_X16ms                         0x2000057e   Data           1  rds.o(.data)
    RdsReceive_X32ms                         0x2000057f   Data           1  rds.o(.data)
    RdsTpSeek_X500ms                         0x20000580   Data           1  rds.o(.data)
    RdsPiSeek_X500ms                         0x20000581   Data           1  rds.o(.data)
    RdsMsAf_X500ms                           0x20000582   Data           1  rds.o(.data)
    RdsMsAf_X128ms                           0x20000583   Data           1  rds.o(.data)
    RdsMeasure_X32ms                         0x20000584   Data           1  rds.o(.data)
    REAL_PI                                  0x20000588   Data           4  rds.o(.data)
    REAL_PILast                              0x2000058c   Data           4  rds.o(.data)
    REAL_PILast2                             0x20000590   Data           4  rds.o(.data)
    REAL_PIBackup                            0x20000594   Data           4  rds.o(.data)
    REAL_PISeekBackup                        0x20000598   Data           4  rds.o(.data)
    REAL_PISeekTimer                         0x2000059c   Data           4  rds.o(.data)
    REAL_PTY                                 0x200005a0   Data           1  rds.o(.data)
    REAL_PTYLast                             0x200005a1   Data           1  rds.o(.data)
    REAL_RDSBufferReadTimer                  0x200005a2   Data           1  rds.o(.data)
    rRdsExtStat                              0x200005a3   Data           1  rds.o(.data)
    rRdsTaTpStat                             0x200005a4   Data           1  rds.o(.data)
    cRdsTpCnt                                0x200005a5   Data           1  rds.o(.data)
    rRdsPtyStat                              0x200005a6   Data           1  rds.o(.data)
    rRdsGroup                                0x200005a7   Data           1  rds.o(.data)
    rRdsPsNameAct                            0x200005a8   Data           8  rds.o(.data)
    rRdsPsNameSto                            0x200005b0   Data           8  rds.o(.data)
    rRdsPiStat                               0x200005b8   Data           1  rds.o(.data)
    rRdsPiCode                               0x200005ba   Data           2  rds.o(.data)
    Rds_SwafFixPi                            0x200005bc   Data           2  rds.o(.data)
    Rds_SwafFixPiBak                         0x200005be   Data           2  rds.o(.data)
    rRDSAFLevel                              0x200005c0   Data           1  rds.o(.data)
    rRdsSmeterBuff                           0x200005c2   Data           2  rds.o(.data)
    cSmeterCnt                               0x200005c4   Data           1  rds.o(.data)
    rRDSSmeter1                              0x200005c5   Data           1  rds.o(.data)
    rRDSSmeter2                              0x200005c6   Data           1  rds.o(.data)
    rRDSSmeter3                              0x200005c7   Data           1  rds.o(.data)
    rRdsUTCHour                              0x200005c8   Data           1  rds.o(.data)
    rRdsUTCMin                               0x200005c9   Data           1  rds.o(.data)
    rRdsLTOffset                             0x200005ca   Data           1  rds.o(.data)
    cRdsAfDet                                0x200005cb   Data           1  rds.o(.data)
    rAfMeasureTimer                          0x200005cc   Data           1  rds.o(.data)
    rCurStaSig                               0x200005cd   Data           1  rds.o(.data)
    cAfTimer_X128ms                          0x200005ce   Data           1  rds.o(.data)
    rPtyType                                 0x200005cf   Data           1  rds.o(.data)
    rPtySTabPnt                              0x200005d0   Data           1  rds.o(.data)
    rOldRdMNumM                              0x200005d1   Data           1  rds.o(.data)
    rOldRdMNumS                              0x200005d2   Data           1  rds.o(.data)
    cBandBackup                              0x200005d3   Data           1  rds.o(.data)
    rRdsStoPty                               0x200005d4   Data           1  rds.o(.data)
    rRdsStoPtyTemp                           0x200005d5   Data           1  rds.o(.data)
    rds_data                                 0x200005d8   Data           4  rds.o(.data)
    rRdsDataBits                             0x200005dc   Data           1  rds.o(.data)
    rCrch                                    0x200005dd   Data           1  rds.o(.data)
    rcrcl                                    0x200005de   Data           1  rds.o(.data)
    rRdsEonVar                               0x200005e2   Data           1  rdseon.o(.data)
    rRdsEonData1                             0x200005e3   Data           1  rdseon.o(.data)
    rRdsEonData2                             0x200005e4   Data           1  rdseon.o(.data)
    rRdsEonTaSt                              0x200005e5   Data           1  rdseon.o(.data)
    rRdsEonTaIdx                             0x200005e6   Data           1  rdseon.o(.data)
    rRdsEonPtySt                             0x200005e7   Data           1  rdseon.o(.data)
    rRdsEonPtyIdx                            0x200005e8   Data           1  rdseon.o(.data)
    rRdsEon_X64ms                            0x200005e9   Data           1  rdseon.o(.data)
    rRdsEonIdx                               0x200005ea   Data           1  rdseon.o(.data)
    rRdsEonFlag                              0x200005eb   Data           1  rdseon.o(.data)
    rRdsAfIdx                                0x200005ec   Data           1  rdseon.o(.data)
    Tuner                                    0x200005f0   Data           2  tuner_elite.o(.data)
    FmIdx                                    0x200005f2   Data           1  tuner_elite.o(.data)
    AmIdx                                    0x200005f3   Data           1  tuner_elite.o(.data)
    adcvalueBuff                             0x20000604   Data          12  bsp.o(.bss)
    System                                   0x20000610   Data          13  core.o(.bss)
    core                                     0x2000061e   Data          12  core.o(.bss)
    armkey                                   0x2000062a   Data          11  core.o(.bss)
    armtime                                  0x20000636   Data          10  drive.o(.bss)
    keybuff                                  0x20000640   Data          24  key.o(.bss)
    usart2Sendbuff                           0x20000658   Data         512  armuart.o(.bss)
    usart2Receivebuff                        0x20000858   Data         512  armuart.o(.bss)
    armcommandbuff                           0x20000a58   Data         512  armuart.o(.bss)
    armcmd_temp                              0x20000c58   Data         255  armuart.o(.bss)
    AD_SW_Info                               0x20000d58   Data          10  swc.o(.bss)
    AD_SW2_Info                              0x20000d62   Data          10  swc.o(.bss)
    usart1SendData                           0x20000d94   Data         256  usart1.o(.bss)
    usart1Receivebuff                        0x20000e94   Data         256  usart1.o(.bss)
    lincommandbuff                           0x20000f94   Data         200  usart1.o(.bss)
    AAC_DataRx                               0x2000105c   Data          13  app_can.o(.bss)
    AAC_DataTx                               0x20001069   Data          13  app_can.o(.bss)
    Can0_TX_buf                              0x20001078   Data         200  mw_can.o(.bss)
    Can0_RX_buf                              0x20001140   Data         200  mw_can.o(.bss)
    Can1_TX_buf                              0x20001208   Data         200  mw_can.o(.bss)
    Can1_RX_buf                              0x200012d0   Data         200  mw_can.o(.bss)
    Com10Buff                                0x20001398   Data          10  radio.o(.bss)
    FMPresetMem                              0x200013a2   Data          48  radio.o(.bss)
    AMPresetMem                              0x200013d2   Data          24  radio.o(.bss)
    FMAsMem                                  0x200013ea   Data          72  radio.o(.bss)
    AMAsMem                                  0x20001432   Data          48  radio.o(.bss)
    BandMsgMem                               0x20001462   Data          12  radio.o(.bss)
    usart4Sendbuff                           0x2000146e   Data         256  usart4.o(.bss)
    usart4Receivebuff                        0x2000156e   Data         256  usart4.o(.bss)
    Cancommandbuff                           0x2000166e   Data         100  usart4.o(.bss)
    Cancommandbuff_bak                       0x200016d2   Data         255  usart4.o(.bss)
    Queue                                    0x200017d2   Data         360  sch_message.o(.bss)
    Uart0_TX_buf                             0x2000193a   Data         128  mw_uart.o(.bss)
    Uart0_RX_buf                             0x200019ba   Data         128  mw_uart.o(.bss)
    Uart1_TX_buf                             0x20001a3a   Data         128  mw_uart.o(.bss)
    Uart1_RX_buf                             0x20001aba   Data         128  mw_uart.o(.bss)
    Uart2_TX_buf                             0x20001b3a   Data         128  mw_uart.o(.bss)
    Uart2_RX_buf                             0x20001bba   Data         128  mw_uart.o(.bss)
    Uart3_TX_buf                             0x20001c3a   Data         128  mw_uart.o(.bss)
    Uart3_RX_buf                             0x20001cba   Data         128  mw_uart.o(.bss)
    Uart4_TX_buf                             0x20001d3a   Data         128  mw_uart.o(.bss)
    Uart4_RX_buf                             0x20001dba   Data         128  mw_uart.o(.bss)
    Uart5_TX_buf                             0x20001e3a   Data         128  mw_uart.o(.bss)
    Uart5_RX_buf                             0x20001eba   Data         128  mw_uart.o(.bss)
    rRdsDafFmFreq                            0x20001f3a   Data          25  rds.o(.bss)
    rRdsDafFmFreqCnt                         0x20001f53   Data          25  rds.o(.bss)
    rRdsRTNameAct                            0x20001f6c   Data          64  rds.o(.bss)
    rRdsRTNameSto                            0x20001fac   Data          64  rds.o(.bss)
    PresetPiCode                             0x20001fec   Data          12  rds.o(.bss)
    RDSPreMem                                0x20001ff8   Data        2100  rds.o(.bss)
    RDSEonBlkData                            0x2000282c   Data         224  rdseon.o(.bss)
    Radio_7786                               0x2000290c   Data         640  tuner_elite.o(.bss)
    RDS                                      0x20002b8c   Data          52  tuner_elite.o(.bss)
    __libspace_start                         0x20002bc0   Data          96  libspace.o(.bss)
    __temporary_stack_top$libspace           0x20002c20   Data           0  libspace.o(.bss)



==============================================================================

Memory Map of the image

  Image Entry point : 0x080018c1

  Load Region LR_IROM1 (Base: 0x08001800, Size: 0x00014a7c, Max: 0x00020000, ABSOLUTE, COMPRESSED[0x00014668])

    Execution Region ER_IROM1 (Base: 0x08001800, Size: 0x00014538, Max: 0x00020000, ABSOLUTE)

    Base Addr    Size         Type   Attr      Idx    E Section Name        Object

    0x08001800   0x000000c0   Data   RO            3    RESET               startup_stm32f072xb.o
    0x080018c0   0x00000008   Code   RO         5508  * !!!main             c_p.l(__main.o)
    0x080018c8   0x0000003c   Code   RO         5707    !!!scatter          c_p.l(__scatter.o)
    0x08001904   0x0000001c   Code   RO         5709    !!handler_zi        c_p.l(__scatter_zi.o)
    0x08001920   0x00000002   Code   RO         5572    .ARM.Collect$$libinit$$00000000  c_p.l(libinit.o)
    0x08001922   0x00000000   Code   RO         5588    .ARM.Collect$$libinit$$00000002  c_p.l(libinit2.o)
    0x08001922   0x00000000   Code   RO         5590    .ARM.Collect$$libinit$$00000004  c_p.l(libinit2.o)
    0x08001922   0x00000000   Code   RO         5593    .ARM.Collect$$libinit$$0000000A  c_p.l(libinit2.o)
    0x08001922   0x00000000   Code   RO         5595    .ARM.Collect$$libinit$$0000000C  c_p.l(libinit2.o)
    0x08001922   0x00000000   Code   RO         5597    .ARM.Collect$$libinit$$0000000E  c_p.l(libinit2.o)
    0x08001922   0x00000000   Code   RO         5600    .ARM.Collect$$libinit$$00000011  c_p.l(libinit2.o)
    0x08001922   0x00000000   Code   RO         5602    .ARM.Collect$$libinit$$00000013  c_p.l(libinit2.o)
    0x08001922   0x00000000   Code   RO         5604    .ARM.Collect$$libinit$$00000015  c_p.l(libinit2.o)
    0x08001922   0x00000000   Code   RO         5606    .ARM.Collect$$libinit$$00000017  c_p.l(libinit2.o)
    0x08001922   0x00000000   Code   RO         5608    .ARM.Collect$$libinit$$00000019  c_p.l(libinit2.o)
    0x08001922   0x00000000   Code   RO         5610    .ARM.Collect$$libinit$$0000001B  c_p.l(libinit2.o)
    0x08001922   0x00000000   Code   RO         5612    .ARM.Collect$$libinit$$0000001D  c_p.l(libinit2.o)
    0x08001922   0x00000000   Code   RO         5614    .ARM.Collect$$libinit$$0000001F  c_p.l(libinit2.o)
    0x08001922   0x00000000   Code   RO         5616    .ARM.Collect$$libinit$$00000021  c_p.l(libinit2.o)
    0x08001922   0x00000000   Code   RO         5618    .ARM.Collect$$libinit$$00000023  c_p.l(libinit2.o)
    0x08001922   0x00000000   Code   RO         5620    .ARM.Collect$$libinit$$00000025  c_p.l(libinit2.o)
    0x08001922   0x00000000   Code   RO         5624    .ARM.Collect$$libinit$$0000002C  c_p.l(libinit2.o)
    0x08001922   0x00000000   Code   RO         5626    .ARM.Collect$$libinit$$0000002E  c_p.l(libinit2.o)
    0x08001922   0x00000000   Code   RO         5628    .ARM.Collect$$libinit$$00000030  c_p.l(libinit2.o)
    0x08001922   0x00000000   Code   RO         5630    .ARM.Collect$$libinit$$00000032  c_p.l(libinit2.o)
    0x08001922   0x00000002   Code   RO         5631    .ARM.Collect$$libinit$$00000033  c_p.l(libinit2.o)
    0x08001924   0x00000002   Code   RO         5662    .ARM.Collect$$libshutdown$$00000000  c_p.l(libshutdown.o)
    0x08001926   0x00000000   Code   RO         5688    .ARM.Collect$$libshutdown$$00000002  c_p.l(libshutdown2.o)
    0x08001926   0x00000000   Code   RO         5690    .ARM.Collect$$libshutdown$$00000004  c_p.l(libshutdown2.o)
    0x08001926   0x00000000   Code   RO         5693    .ARM.Collect$$libshutdown$$00000007  c_p.l(libshutdown2.o)
    0x08001926   0x00000000   Code   RO         5696    .ARM.Collect$$libshutdown$$0000000A  c_p.l(libshutdown2.o)
    0x08001926   0x00000000   Code   RO         5698    .ARM.Collect$$libshutdown$$0000000C  c_p.l(libshutdown2.o)
    0x08001926   0x00000000   Code   RO         5701    .ARM.Collect$$libshutdown$$0000000F  c_p.l(libshutdown2.o)
    0x08001926   0x00000002   Code   RO         5702    .ARM.Collect$$libshutdown$$00000010  c_p.l(libshutdown2.o)
    0x08001928   0x00000000   Code   RO         5529    .ARM.Collect$$rtentry$$00000000  c_p.l(__rtentry.o)
    0x08001928   0x00000000   Code   RO         5538    .ARM.Collect$$rtentry$$00000002  c_p.l(__rtentry2.o)
    0x08001928   0x00000006   Code   RO         5550    .ARM.Collect$$rtentry$$00000004  c_p.l(__rtentry4.o)
    0x0800192e   0x00000000   Code   RO         5540    .ARM.Collect$$rtentry$$00000009  c_p.l(__rtentry2.o)
    0x0800192e   0x00000004   Code   RO         5541    .ARM.Collect$$rtentry$$0000000A  c_p.l(__rtentry2.o)
    0x08001932   0x00000000   Code   RO         5543    .ARM.Collect$$rtentry$$0000000C  c_p.l(__rtentry2.o)
    0x08001932   0x00000008   Code   RO         5544    .ARM.Collect$$rtentry$$0000000D  c_p.l(__rtentry2.o)
    0x0800193a   0x00000002   Code   RO         5579    .ARM.Collect$$rtexit$$00000000  c_p.l(rtexit.o)
    0x0800193c   0x00000000   Code   RO         5635    .ARM.Collect$$rtexit$$00000002  c_p.l(rtexit2.o)
    0x0800193c   0x00000004   Code   RO         5636    .ARM.Collect$$rtexit$$00000003  c_p.l(rtexit2.o)
    0x08001940   0x00000006   Code   RO         5637    .ARM.Collect$$rtexit$$00000004  c_p.l(rtexit2.o)
    0x08001946   0x00000002   PAD
    0x08001948   0x00000038   Code   RO         5496    .emb_text           c_p.l(rt_memcpy.o)
    0x08001980   0x00000038   Code   RO            4    .text               startup_stm32f072xb.o
    0x080019b8   0x00000040   Code   RO         5500    .text               c_p.l(rt_memclr.o)
    0x080019f8   0x0000015a   Code   RO         5502    .text               c_p.l(aeabi_sdiv.o)
    0x08001b52   0x00000006   Code   RO         5506    .text               c_p.l(heapauxi.o)
    0x08001b58   0x00000358   Code   RO         5512    .text               fz_ps.l(daddsub.o)
    0x08001eb0   0x00000448   Code   RO         5514    .text               fz_ps.l(ddiv.o)
    0x080022f8   0x00000048   Code   RO         5517    .text               fz_ps.l(dfixui.o)
    0x08002340   0x00000058   Code   RO         5519    .text               fz_ps.l(dflti.o)
    0x08002398   0x00000248   Code   RO         5521    .text               fz_ps.l(dmul.o)
    0x080025e0   0x0000003e   Code   RO         5558    .text               c_p.l(sys_stackheap_outer.o)
    0x0800261e   0x00000010   Code   RO         5561    .text               c_p.l(exit.o)
    0x0800262e   0x00000002   PAD
    0x08002630   0x00000008   Code   RO         5575    .text               c_p.l(libspace.o)
    0x08002638   0x0000000c   Code   RO         5632    .text               c_p.l(sys_exit.o)
    0x08002644   0x00000002   Code   RO         5651    .text               c_p.l(use_no_semi.o)
    0x08002646   0x00000000   Code   RO         5653    .text               c_p.l(indicate_semi.o)
    0x08002646   0x00000056   Code   RO         5705    .text               c_p.l(__dczerorl2.o)
    0x0800269c   0x0000003c   Code   RO         1410    i.ADC_GetData       swc.o
    0x080026d8   0x000000bc   Code   RO         1412    i.AD_SW2_Key_Scan   swc.o
    0x08002794   0x000000cc   Code   RO         5070    i.AFCheckInit       tuner_elite.o
    0x08002860   0x000009e8   Code   RO         3389    i.ASProc            radio.o
    0x08003248   0x00000144   Code   RO         3390    i.ATProc            radio.o
    0x0800338c   0x00000044   Code   RO          333    i.AdcDeinit         bsp.o
    0x080033d0   0x000000cc   Code   RO          334    i.AdcInit           bsp.o
    0x0800349c   0x000002d8   Code   RO         4622    i.AfDetProc         rds.o
    0x08003774   0x00000058   Code   RO         3724    i.AnalysisCanStr    usart4.o
    0x080037cc   0x00000048   Code   RO          942    i.ArmUartInit       armuart.o
    0x08003814   0x00000024   Code   RO         3392    i.BkupStatNum       radio.o
    0x08003838   0x00000048   Code   RO          335    i.BspInit           bsp.o
    0x08003880   0x00000022   Code   RO          336    i.Bsp_UART_Init     bsp.o
    0x080038a2   0x00000002   PAD
    0x080038a4   0x000000bc   Code   RO         1144    i.CAN_ClearITPendingBit  stm32f0xx_can.o
    0x08003960   0x00000106   Code   RO         1158    i.CAN_Receive       stm32f0xx_can.o
    0x08003a66   0x00000134   Code   RO         1163    i.CAN_Transmit      stm32f0xx_can.o
    0x08003b9a   0x00000002   PAD
    0x08003b9c   0x0000005c   Code   RO           12    i.CEC_CAN_IRQHandler  stm32f0xx_it.o
    0x08003bf8   0x00000030   Code   RO         1669    i.CanPutToBuf       mw_can.o
    0x08003c28   0x00000014   Code   RO         1674    i.Can_Rx_DataPro    mw_can.o
    0x08003c3c   0x00000028   Code   RO         3393    i.ChkNoStat         radio.o
    0x08003c64   0x0000003c   Code   RO         3394    i.ChkStatExist      radio.o
    0x08003ca0   0x00000254   Code   RO         3395    i.Ck7786StatProc    radio.o
    0x08003ef4   0x000000e4   Code   RO          731    i.CloseExternDevice  drive.o
    0x08003fd8   0x00000014   Code   RO         1414    i.ClrKeyInfo        swc.o
    0x08003fec   0x00000088   Code   RO         4914    i.ClrRDSParms       rdsapp.o
    0x08004074   0x00000434   Code   RO          557    i.CoreAccProcess    core.o
    0x080044a8   0x000000a0   Code   RO          558    i.CoreFastArm2update  core.o
    0x08004548   0x00000080   Code   RO          559    i.CoreFastBack      core.o
    0x080045c8   0x00000040   Code   RO          560    i.CoreFastPanel     core.o
    0x08004608   0x00000034   Code   RO          561    i.CoreInit          core.o
    0x0800463c   0x00000214   Code   RO          562    i.CorePowerProcess  core.o
    0x08004850   0x0000003c   Code   RO          563    i.CoreTime          core.o
    0x0800488c   0x0000006c   Code   RO          650    i.CoreWakeupDetect  detection.o
    0x080048f8   0x0000006c   Code   RO          651    i.DetecAccSignal    detection.o
    0x08004964   0x000000c0   Code   RO          652    i.DetecBackSight    detection.o
    0x08004a24   0x00000140   Code   RO          653    i.DetecBat          detection.o
    0x08004b64   0x0000007c   Code   RO          654    i.DetecBrakeSight   detection.o
    0x08004be0   0x0000007c   Code   RO          655    i.DetecCarILL       detection.o
    0x08004c5c   0x000000a0   Code   RO          656    i.DetectInit        detection.o
    0x08004cfc   0x00000034   Code   RO          657    i.DetectSignal      detection.o
    0x08004d30   0x0000004c   Code   RO         5071    i.Disable_RDS_Int   tuner_elite.o
    0x08004d7c   0x00000098   Code   RO          733    i.DriveInit         drive.o
    0x08004e14   0x0000002c   Code   RO           13    i.EXTI0_1_IRQHandler  stm32f0xx_it.o
    0x08004e40   0x0000003c   Code   RO           14    i.EXTI4_15_IRQHandler  stm32f0xx_it.o
    0x08004e7c   0x0000000c   Code   RO         2244    i.EXTI_ClearITPendingBit  stm32f0xx_exti.o
    0x08004e88   0x0000001c   Code   RO         2248    i.EXTI_GetITStatus  stm32f0xx_exti.o
    0x08004ea4   0x00000088   Code   RO         2249    i.EXTI_Init         stm32f0xx_exti.o
    0x08004f2c   0x00000010   Code   RO         2250    i.EXTI_StructInit   stm32f0xx_exti.o
    0x08004f3c   0x0000006c   Code   RO         5072    i.Elite_BootcodeDownload  tuner_elite.o
    0x08004fa8   0x00000030   Code   RO         5073    i.Elite_CmdAFCheck  tuner_elite.o
    0x08004fd8   0x00000030   Code   RO         5074    i.Elite_CmdAFEnd    tuner_elite.o
    0x08005008   0x00000030   Code   RO         5076    i.Elite_CmdChangeAFFreq  tuner_elite.o
    0x08005038   0x000000a4   Code   RO         5077    i.Elite_CmdChangeBand  tuner_elite.o
    0x080050dc   0x00000068   Code   RO         5078    i.Elite_CmdChangeFreq  tuner_elite.o
    0x08005144   0x00000024   Code   RO         5079    i.Elite_CmdMuSICA   tuner_elite.o
    0x08005168   0x00000038   Code   RO         5081    i.Elite_CmdReadAFQual  tuner_elite.o
    0x080051a0   0x00000084   Code   RO         5082    i.Elite_CmdReadMem  tuner_elite.o
    0x08005224   0x00000374   Code   RO         5083    i.Elite_CmdReadSeekStatus  tuner_elite.o
    0x08005598   0x000000b0   Code   RO         5084    i.Elite_CmdReadTDSR  tuner_elite.o
    0x08005648   0x00000094   Code   RO         5085    i.Elite_CmdReadTunerStatus  tuner_elite.o
    0x080056dc   0x00000024   Code   RO         5086    i.Elite_CmdSeekEnd  tuner_elite.o
    0x08005700   0x000001a0   Code   RO         5087    i.Elite_CmdSetFEReg  tuner_elite.o
    0x080058a0   0x000000f8   Code   RO         5088    i.Elite_CmdSetSeekTH  tuner_elite.o
    0x08005998   0x00000030   Code   RO         5090    i.Elite_CmdStartManualSeek  tuner_elite.o
    0x080059c8   0x0000005c   Code   RO         5091    i.Elite_CmdStartup  tuner_elite.o
    0x08005a24   0x00000224   Code   RO         5092    i.Elite_CmdWriteBeCoeff  tuner_elite.o
    0x08005c48   0x000000a4   Code   RO         5093    i.Elite_CmdWriteMem  tuner_elite.o
    0x08005cec   0x0000005c   Code   RO         5094    i.Elite_CmdWriteRead  tuner_elite.o
    0x08005d48   0x000001b4   Code   RO         5098    i.Elite_DirectRead  tuner_elite.o
    0x08005efc   0x00000168   Code   RO         5099    i.Elite_DirectWrite  tuner_elite.o
    0x08006064   0x0000012c   Code   RO         5100    i.Elite_GetAverageQuality  tuner_elite.o
    0x08006190   0x00000078   Code   RO         5101    i.Enable_RDS_Int    tuner_elite.o
    0x08006208   0x000002dc   Code   RO         4989    i.EonTADetProc      rdseon.o
    0x080064e4   0x0000000c   Code   RO          495    i.FLASH_if_ClearFlag  flash_if.o
    0x080064f0   0x0000004c   Code   RO          496    i.FLASH_if_ErasePage  flash_if.o
    0x0800653c   0x0000000e   Code   RO          497    i.FLASH_if_Init     flash_if.o
    0x0800654a   0x00000002   PAD
    0x0800654c   0x00000014   Code   RO          498    i.FLASH_if_Lock     flash_if.o
    0x08006560   0x00000008   Code   RO          499    i.FLASH_if_Readhalfword  flash_if.o
    0x08006568   0x00000018   Code   RO          500    i.FLASH_if_Unlock   flash_if.o
    0x08006580   0x00000044   Code   RO          501    i.FLASH_if_WaitForLastOperation  flash_if.o
    0x080065c4   0x00000040   Code   RO          502    i.FLASH_if_Writehalfword  flash_if.o
    0x08006604   0x00000090   Code   RO         2149    i.GPIO_Init         stm32f0xx_gpio.o
    0x08006694   0x00000044   Code   RO         2150    i.GPIO_PinAFConfig  stm32f0xx_gpio.o
    0x080066d8   0x00000002   Code   RO          337    i.GalaDeInit        bsp.o
    0x080066da   0x00000004   Code   RO          338    i.GalaInit          bsp.o
    0x080066de   0x00000026   Code   RO         4247    i.GetAverage_U16    sch_common.o
    0x08006704   0x00000094   Code   RO         1415    i.GetKeyData        swc.o
    0x08006798   0x00000094   Code   RO         1416    i.GetKeyData2       swc.o
    0x0800682c   0x00000028   Code   RO         1417    i.GetKeyNum         swc.o
    0x08006854   0x00000016   Code   RO         3397    i.GetMaxStat        radio.o
    0x0800686a   0x00000002   PAD
    0x0800686c   0x0000001c   Code   RO         4362    i.GetMessage        sch_message.o
    0x08006888   0x00000084   Code   RO         3398    i.GetRadFreOctData  radio.o
    0x0800690c   0x000000d0   Code   RO         3399    i.GetRadPlayFre     radio.o
    0x080069dc   0x00000064   Code   RO         3400    i.GetRdsAFFreq      radio.o
    0x08006a40   0x00000024   Code   RO         1418    i.GetSW2StudyKeyNum  swc.o
    0x08006a64   0x00000024   Code   RO         1419    i.GetSWStudyKeyNum  swc.o
    0x08006a88   0x000000c8   Code   RO          339    i.GpioInit          bsp.o
    0x08006b50   0x00000158   Code   RO         5102    i.HITPushToLast     tuner_elite.o
    0x08006ca8   0x0000006c   Code   RO         5104    i.HIT_ForeceMono    tuner_elite.o
    0x08006d14   0x00000068   Code   RO         5105    i.HIT_ForeceMute    tuner_elite.o
    0x08006d7c   0x00000004   Code   RO           15    i.HardFault_Handler  stm32f0xx_it.o
    0x08006d80   0x00000018   Code   RO          658    i.HasAcc            detection.o
    0x08006d98   0x00000060   Code   RO         5106    i.I2C3Ack           tuner_elite.o
    0x08006df8   0x00000080   Code   RO         5107    i.I2C3Ack2          tuner_elite.o
    0x08006e78   0x0000007c   Code   RO         5108    i.I2C3In8Bit        tuner_elite.o
    0x08006ef4   0x000000d8   Code   RO         5109    i.I2C3Out8Bit       tuner_elite.o
    0x08006fcc   0x0000004c   Code   RO         5110    i.I2C3Start         tuner_elite.o
    0x08007018   0x0000004c   Code   RO         5111    i.I2C3Stop          tuner_elite.o
    0x08007064   0x0000000e   Code   RO         5112    i.I2C_delay         tuner_elite.o
    0x08007072   0x00000070   Code   RO         2909    i.IR_EXTI7_Config   irda.o
    0x080070e2   0x00000002   PAD
    0x080070e4   0x00000074   Code   RO         2910    i.IR_EXTI8_Config   irda.o
    0x08007158   0x000000e8   Code   RO         3401    i.InitAMPresetStat  radio.o
    0x08007240   0x000000f0   Code   RO         3402    i.InitFMPresetStat  radio.o
    0x08007330   0x0000000c   Code   RO         3403    i.InitPresetStat    radio.o
    0x0800733c   0x00000060   Code   RO         2913    i.IrdaDeInit        irda.o
    0x0800739c   0x00000010   Code   RO         2914    i.IrdaInit          irda.o
    0x080073ac   0x00000022   Code   RO         4254    i.IsInArray_U8      sch_common.o
    0x080073ce   0x0000001c   Code   RO         4255    i.IsInData          sch_common.o
    0x080073ea   0x00000002   PAD
    0x080073ec   0x00000044   Code   RO          734    i.IsLeapYear        drive.o
    0x08007430   0x0000002c   Code   RO          855    i.KeyInit           key.o
    0x0800745c   0x0000007c   Code   RO         1420    i.KeyScan           swc.o
    0x080074d8   0x00000058   Code   RO         1421    i.KeyTimer          swc.o
    0x08007530   0x00000090   Code   RO         1422    i.Key_Scan_AD       swc.o
    0x080075c0   0x00000090   Code   RO         1423    i.Key_Scan_AD2      swc.o
    0x08007650   0x00000154   Code   RO         1615    i.M2C_TxService     app_can.o
    0x080077a4   0x000000d8   Code   RO          340    i.McuIapStart       bsp.o
    0x0800787c   0x00000098   Code   RO          735    i.McuPowerDown      drive.o
    0x08007914   0x00000180   Code   RO         4623    i.MeasureAfList     rds.o
    0x08007a94   0x0000003a   Code   RO          565    i.MessageARMPoweroff  core.o
    0x08007ace   0x00000002   PAD
    0x08007ad0   0x00000094   Code   RO          737    i.MuteOff           drive.o
    0x08007b64   0x0000005c   Code   RO          738    i.MuteOn            drive.o
    0x08007bc0   0x00000078   Code   RO          739    i.MuteTimeset       drive.o
    0x08007c38   0x00000002   Code   RO           16    i.NMI_Handler       stm32f0xx_it.o
    0x08007c3a   0x00000002   PAD
    0x08007c3c   0x00000070   Code   RO         2305    i.NVIC_Init         stm32f0xx_misc.o
    0x08007cac   0x000003ec   Code   RO         3404    i.PSProc            radio.o
    0x08008098   0x00000074   Code   RO         3405    i.PSStationChk      radio.o
    0x0800810c   0x00000010   Code   RO          341    i.PWM_DeInit        bsp.o
    0x0800811c   0x00000002   Code   RO          342    i.PWM_Init          bsp.o
    0x0800811e   0x00000002   Code   RO           17    i.PendSV_Handler    stm32f0xx_it.o
    0x08008120   0x000000c0   Code   RO         4624    i.PiSeekProc        rds.o
    0x080081e0   0x00000024   Code   RO         4364    i.PostMessage       sch_message.o
    0x08008204   0x00000016   Code   RO         4408    i.Print_To_Buf      sch_printf.o
    0x0800821a   0x000000e6   Code   RO         4409    i.Printf            sch_printf.o
    0x08008300   0x00000978   Code   RO          943    i.ProcessArmCommand  armuart.o
    0x08008c78   0x000004c0   Code   RO          566    i.ProcessArmkey     core.o
    0x08009138   0x00000014   Code   RO          567    i.ProcessCore       core.o
    0x0800914c   0x000000d8   Code   RO          740    i.ProcessDate       drive.o
    0x08009224   0x0000007c   Code   RO          659    i.ProcessDetect     detection.o
    0x080092a0   0x000000ac   Code   RO          741    i.ProcessMute       drive.o
    0x0800934c   0x00000060   Code   RO          856    i.ProcessPanelKey   key.o
    0x080093ac   0x00000008   Code   RO         1426    i.ProcessSwc        swc.o
    0x080093b4   0x00000158   Code   RO          944    i.ProcessUart2      armuart.o
    0x0800950c   0x000000ac   Code   RO         3725    i.ProcessVM4Can     usart4.o
    0x080095b8   0x00000074   Code   RO         1563    i.ProcessVMCan      usart1.o
    0x0800962c   0x00000160   Code   RO         4625    i.PtySeekProc       rds.o
    0x0800978c   0x0000005e   Code   RO         4446    i.Queue_In          sch_queue.o
    0x080097ea   0x0000001e   Code   RO         4447    i.Queue_Init        sch_queue.o
    0x08009808   0x0000005a   Code   RO         4451    i.Queue_Out         sch_queue.o
    0x08009862   0x00000002   PAD
    0x08009864   0x00000020   Code   RO         1775    i.RCC_AHBPeriphClockCmd  stm32f0xx_rcc.o
    0x08009884   0x00000020   Code   RO         1777    i.RCC_APB1PeriphClockCmd  stm32f0xx_rcc.o
    0x080098a4   0x00000020   Code   RO         1778    i.RCC_APB1PeriphResetCmd  stm32f0xx_rcc.o
    0x080098c4   0x00000020   Code   RO         1779    i.RCC_APB2PeriphClockCmd  stm32f0xx_rcc.o
    0x080098e4   0x00000020   Code   RO         1780    i.RCC_APB2PeriphResetCmd  stm32f0xx_rcc.o
    0x08009904   0x000001f0   Code   RO         1789    i.RCC_GetClocksFreq  stm32f0xx_rcc.o
    0x08009af4   0x00000034   Code   RO         1812    i.RCC_USARTCLKConfig  stm32f0xx_rcc.o
    0x08009b28   0x00000034   Code   RO         4626    i.RDSAfInit         rds.o
    0x08009b5c   0x00000020   Code   RO         4627    i.RDSAfInitHeader   rds.o
    0x08009b7c   0x000000f0   Code   RO         4633    i.RDSDataClear      rds.o
    0x08009c6c   0x00000150   Code   RO         5113    i.RDSDataInit       tuner_elite.o
    0x08009dbc   0x0000001c   Code   RO         5114    i.RDSDataInitPlus   tuner_elite.o
    0x08009dd8   0x00000024   Code   RO         4990    i.RDSEonAfInit      rdseon.o
    0x08009dfc   0x0000005c   Code   RO         4991    i.RDSEonAfInsert    rdseon.o
    0x08009e58   0x000000a4   Code   RO         4992    i.RDSEonElntSearch  rdseon.o
    0x08009efc   0x00000084   Code   RO         4993    i.RDSEonInit        rdseon.o
    0x08009f80   0x000000d4   Code   RO         4994    i.RDSEonPiAfInsert  rdseon.o
    0x0800a054   0x00000020   Code   RO         4995    i.RDSEonTaSwitchBack  rdseon.o
    0x0800a074   0x00000100   Code   RO         4636    i.RDSExtAf          rds.o
    0x0800a174   0x0000005c   Code   RO         4637    i.RDSExtAfHeader    rds.o
    0x0800a1d0   0x000000ec   Code   RO         4638    i.RDSExtAfMethodA   rds.o
    0x0800a2bc   0x000001b4   Code   RO         4639    i.RDSExtAfMethodB   rds.o
    0x0800a470   0x000002a0   Code   RO         4640    i.RDSExtBkCRT       rds.o
    0x0800a710   0x00000334   Code   RO         4641    i.RDSExtBkDRT       rds.o
    0x0800aa44   0x00000134   Code   RO         4642    i.RDSExtBlkB        rds.o
    0x0800ab78   0x000000dc   Code   RO         4643    i.RDSExtBlkC        rds.o
    0x0800ac54   0x000000c0   Code   RO         4644    i.RDSExtBlkD        rds.o
    0x0800ad14   0x000001b0   Code   RO         4645    i.RDSExtCT          rds.o
    0x0800aec4   0x0000003c   Code   RO         4996    i.RDSExtEonAf       rdseon.o
    0x0800af00   0x00000058   Code   RO         4997    i.RDSExtEonTa       rdseon.o
    0x0800af58   0x000000e4   Code   RO         4998    i.RDSExtEonTaPi     rdseon.o
    0x0800b03c   0x00000184   Code   RO         4646    i.RDSExtPi          rds.o
    0x0800b1c0   0x00000250   Code   RO         4647    i.RDSExtPs          rds.o
    0x0800b410   0x000001c0   Code   RO         4648    i.RDSExtPty         rds.o
    0x0800b5d0   0x00000188   Code   RO         4649    i.RDSExtTa          rds.o
    0x0800b758   0x000000e0   Code   RO         4650    i.RDSExtTp          rds.o
    0x0800b838   0x000004c4   Code   RO         5115    i.RDSFetchBlockData  tuner_elite.o
    0x0800bcfc   0x00000024   Code   RO         5116    i.RDSFlagPINew      tuner_elite.o
    0x0800bd20   0x000001c4   Code   RO         4916    i.RDSFmFreqChange   rdsapp.o
    0x0800bee4   0x00000018   Code   RO         5117    i.RDSGetDataBlock   tuner_elite.o
    0x0800befc   0x00000088   Code   RO         4917    i.RDSInit           rdsapp.o
    0x0800bf84   0x000000b4   Code   RO         4653    i.RDSInsertAF       rds.o
    0x0800c038   0x00000014   Code   RO         5118    i.RDSInt            tuner_elite.o
    0x0800c04c   0x000001d4   Code   RO         5119    i.RDSSetBlockData   tuner_elite.o
    0x0800c220   0x00000028   Code   RO         5120    i.RDSSetDataBlock   tuner_elite.o
    0x0800c248   0x00000030   Code   RO         4654    i.RDSStart          rds.o
    0x0800c278   0x00000018   Code   RO         4655    i.RDSStop           rds.o
    0x0800c290   0x000000ac   Code   RO         4918    i.RDSTimerInit      rdsapp.o
    0x0800c33c   0x0000001a   Code   RO         3840    i.RTC_Bcd2ToByte    stm32f0xx_rtc.o
    0x0800c356   0x00000002   PAD
    0x0800c358   0x00000024   Code   RO         3846    i.RTC_ClearITPendingBit  stm32f0xx_rtc.o
    0x0800c37c   0x0000004c   Code   RO         3856    i.RTC_GetITStatus   stm32f0xx_rtc.o
    0x0800c3c8   0x0000005c   Code   RO         3859    i.RTC_GetTime       stm32f0xx_rtc.o
    0x0800c424   0x0000002c   Code   RO           18    i.RTC_IRQHandler    stm32f0xx_it.o
    0x0800c450   0x00000050   Code   RO         3781    i.RTC_TimeShow      rtc_time.o
    0x0800c4a0   0x00000002   Code   RO         3406    i.RadDpUpdate       radio.o
    0x0800c4a2   0x00000002   PAD
    0x0800c4a4   0x00000d58   Code   RO         3407    i.RadKyAnaly        radio.o
    0x0800d1fc   0x00000080   Code   RO         3409    i.RadSetToDl500ms   radio.o
    0x0800d27c   0x0000000c   Code   RO         3413    i.Radio7786Poweron  radio.o
    0x0800d288   0x0000000c   Code   RO         5122    i.Radio7786SetFreq  tuner_elite.o
    0x0800d294   0x0000002c   Code   RO         3414    i.RadioBreak        radio.o
    0x0800d2c0   0x0000013c   Code   RO         3416    i.RadioInit         radio.o
    0x0800d3fc   0x00000370   Code   RO         3417    i.RadioProc         radio.o
    0x0800d76c   0x00000034   Code   RO         4662    i.RdsDataDecode     rds.o
    0x0800d7a0   0x00000328   Code   RO         4663    i.RdsExtrProc       rds.o
    0x0800dac8   0x00000460   Code   RO         4919    i.RdsKeyAnaly       rdsapp.o
    0x0800df28   0x00000158   Code   RO         4920    i.RdsProc           rdsapp.o
    0x0800e080   0x00000094   Code   RO         1564    i.ReadArmCanStr     usart1.o
    0x0800e114   0x0000005c   Code   RO         3418    i.ReadBandMsg       radio.o
    0x0800e170   0x00000070   Code   RO         3419    i.ReadPresetMem     radio.o
    0x0800e1e0   0x000000ac   Code   RO         3726    i.ReadVM4ArmCanStr  usart4.o
    0x0800e28c   0x00000168   Code   RO         2916    i.RemoteInt         irda.o
    0x0800e3f4   0x0000031c   Code   RO         2917    i.RemoteProc        irda.o
    0x0800e710   0x00000068   Code   RO          945    i.ReportARM2UPDate  armuart.o
    0x0800e778   0x00000048   Code   RO          946    i.ReportAccState    armuart.o
    0x0800e7c0   0x00000088   Code   RO          947    i.ReportAccinfo     armuart.o
    0x0800e848   0x00000040   Code   RO          949    i.ReportChangeSource  armuart.o
    0x0800e888   0x000000d0   Code   RO          950    i.ReportControlBackLight  armuart.o
    0x0800e958   0x00000220   Code   RO          951    i.ReportDate        armuart.o
    0x0800eb78   0x000000fc   Code   RO          952    i.ReportDeviceStatus  armuart.o
    0x0800ec74   0x00000090   Code   RO          953    i.ReportFastback    armuart.o
    0x0800ed04   0x00000074   Code   RO          954    i.ReportFirstBAT    armuart.o
    0x0800ed78   0x00000042   Code   RO          955    i.ReportHandShake   armuart.o
    0x0800edba   0x00000042   Code   RO          957    i.ReportKeySuccess  armuart.o
    0x0800edfc   0x0000005c   Code   RO          958    i.ReportMcuPowerinfo  armuart.o
    0x0800ee58   0x000000b8   Code   RO          959    i.ReportMcuVisions  armuart.o
    0x0800ef10   0x00000068   Code   RO          960    i.ReportRadioArea   armuart.o
    0x0800ef78   0x0000028c   Code   RO          961    i.ReportRadioBaseInfo  armuart.o
    0x0800f204   0x000001ac   Code   RO          962    i.ReportRadioPreListinfo  armuart.o
    0x0800f3b0   0x000000a8   Code   RO          963    i.ReportRadioSignalinfo  armuart.o
    0x0800f458   0x0000007c   Code   RO          964    i.ReportRdsPsinfo   armuart.o
    0x0800f4d4   0x00000078   Code   RO          965    i.ReportRdsRTinfo   armuart.o
    0x0800f54c   0x0000012c   Code   RO          966    i.ReportSWCTable    armuart.o
    0x0800f678   0x00000042   Code   RO          967    i.ReportSetVolume   armuart.o
    0x0800f6ba   0x00000042   Code   RO          968    i.ReportSetinfo     armuart.o
    0x0800f6fc   0x00000028   Code   RO          742    i.ResetExternDevice  drive.o
    0x0800f724   0x00000038   Code   RO         1427    i.ResetStudyKeyNum  swc.o
    0x0800f75c   0x00000054   Code   RO         4664    i.RestoreAfSt       rds.o
    0x0800f7b0   0x00000040   Code   RO         3420    i.RestoreStatNum    radio.o
    0x0800f7f0   0x0000004c   Code   RO         3421    i.RestoreStatNum1   radio.o
    0x0800f83c   0x0000001a   Code   RO         2918    i.RptKyCk           irda.o
    0x0800f856   0x00000002   PAD
    0x0800f858   0x0000004c   Code   RO         2919    i.RstRmtDecode      irda.o
    0x0800f8a4   0x000000bc   Code   RO         3422    i.STChk             radio.o
    0x0800f960   0x00000002   Code   RO           19    i.SVC_Handler       stm32f0xx_it.o
    0x0800f962   0x00000002   PAD
    0x0800f964   0x00000040   Code   RO         3017    i.SYSCFG_EXTILineConfig  stm32f0xx_syscfg.o
    0x0800f9a4   0x0000006c   Code   RO         3423    i.SaveCurBandMsg    radio.o
    0x0800fa10   0x0000004c   Code   RO          857    i.SaveEncodekey     key.o
    0x0800fa5c   0x00000060   Code   RO          858    i.SaveLongkeyRelease  key.o
    0x0800fabc   0x00000014   Code   RO         3424    i.SaveOriginalStat  radio.o
    0x0800fad0   0x0000004c   Code   RO          859    i.SaveRecombinationkey  key.o
    0x0800fb1c   0x000001b8   Code   RO          860    i.Savekey           key.o
    0x0800fcd4   0x0000005a   Code   RO         1428    i.Saveswckey        swc.o
    0x0800fd2e   0x00000018   Code   RO          861    i.ScanKey           key.o
    0x0800fd46   0x00000002   PAD
    0x0800fd48   0x00000144   Code   RO          862    i.ScanPanelkey      key.o
    0x0800fe8c   0x00000114   Code   RO         3425    i.ScanProc          radio.o
    0x0800ffa0   0x00000104   Code   RO         1429    i.ScanSwckey        swc.o
    0x080100a4   0x00000100   Code   RO          864    i.ScanVolEncodekey  key.o
    0x080101a4   0x0000007c   Code   RO         1565    i.SetLinUartBaud    usart1.o
    0x08010220   0x00000094   Code   RO         3426    i.SetRadPwrDn       radio.o
    0x080102b4   0x0000005c   Code   RO         3427    i.SetRadPwrOff      radio.o
    0x08010310   0x00000022   Code   RO         2920    i.SpKyCk            irda.o
    0x08010332   0x00000002   PAD
    0x08010334   0x000000d4   Code   RO         3428    i.StartChgBand      radio.o
    0x08010408   0x00000020   Code   RO         3429    i.StartChkStat      radio.o
    0x08010428   0x0000006c   Code   RO         3430    i.StartWrPll        radio.o
    0x08010494   0x000000e4   Code   RO         3431    i.StatNumDec        radio.o
    0x08010578   0x000000f4   Code   RO         3432    i.StatNumInc        radio.o
    0x0801066c   0x0000000c   Code   RO         1431    i.SwcInit           swc.o
    0x08010678   0x0000001c   Code   RO          343    i.SysDelay          bsp.o
    0x08010694   0x00000002   Code   RO          344    i.SysDelay10us      bsp.o
    0x08010696   0x00000002   Code   RO           20    i.SysTick_Handler   stm32f0xx_it.o
    0x08010698   0x00000194   Code   RO         4502    i.SysUartInit       mw_uart.o
    0x0801082c   0x0000001c   Code   RO         4257    i.SysWait1Us        sch_common.o
    0x08010848   0x00000014   Code   RO         4259    i.SysWaitUs         sch_common.o
    0x0801085c   0x000000a8   Code   RO          345    i.SystemClkDown     bsp.o
    0x08010904   0x000000e4   Code   RO          268    i.SystemInit        system_stm32f0xx.o
    0x080109e8   0x0000010c   Code   RO          743    i.SystemPowerOff    drive.o
    0x08010af4   0x000000d8   Code   RO          744    i.SystemPowerOn     drive.o
    0x08010bcc   0x00000008   Code   RO          745    i.SystemSleepWake   drive.o
    0x08010bd4   0x0000004c   Code   RO          746    i.SystemTimereset   drive.o
    0x08010c20   0x000002ac   Code   RO          747    i.SystemTimeset     drive.o
    0x08010ecc   0x00000008   Code   RO         1618    i.TASK_Can_Pro      app_can.o
    0x08010ed4   0x00000160   Code   RO           21    i.TIM14_IRQHandler  stm32f0xx_it.o
    0x08011034   0x0000000a   Code   RO           22    i.TIM2_IRQHandler   stm32f0xx_it.o
    0x0801103e   0x00000002   PAD
    0x08011040   0x0000001c   Code   RO         2353    i.TIM_Cmd           stm32f0xx_tim.o
    0x0801105c   0x00000006   Code   RO         2372    i.TIM_GetCounter    stm32f0xx_tim.o
    0x08011062   0x00000014   Code   RO         2378    i.TIM_ITConfig      stm32f0xx_tim.o
    0x08011076   0x00000004   Code   RO         2414    i.TIM_SetAutoreload  stm32f0xx_tim.o
    0x0801107a   0x00000004   Code   RO         2420    i.TIM_SetCounter    stm32f0xx_tim.o
    0x0801107e   0x00000002   PAD
    0x08011080   0x0000007c   Code   RO         2426    i.TIM_TimeBaseInit  stm32f0xx_tim.o
    0x080110fc   0x0000002c   Code   RO          346    i.Time14Deinit      bsp.o
    0x08011128   0x00000084   Code   RO          347    i.Time14Init        bsp.o
    0x080111ac   0x0000004a   Code   RO         2921    i.Timer2Init        irda.o
    0x080111f6   0x00000002   PAD
    0x080111f8   0x000000b4   Code   RO         4665    i.TpSeekProc        rds.o
    0x080112ac   0x000001a0   Code   RO         4666    i.TrafficProc       rds.o
    0x0801144c   0x000000dc   Code   RO          865    i.TransmitKey       key.o
    0x08011528   0x000000b8   Code   RO         3434    i.TunAMParmStartAddr  radio.o
    0x080115e0   0x00000008   Code   RO         3435    i.TunFMORITParmStartAddr  radio.o
    0x080115e8   0x000000ac   Code   RO         3436    i.TunFMParmStartAddr  radio.o
    0x08011694   0x00000168   Code   RO         3437    i.TunParmStartAddr  radio.o
    0x080117fc   0x00000030   Code   RO         5123    i.Tuner10msTimer    tuner_elite.o
    0x0801182c   0x000000e0   Code   RO         5124    i.TunerChangeBand   tuner_elite.o
    0x0801190c   0x00000008   Code   RO         5126    i.TunerReadAFSeekStatus  tuner_elite.o
    0x08011914   0x0000000c   Code   RO         5128    i.TunerSeekOff      tuner_elite.o
    0x08011920   0x00000018   Code   RO         5129    i.TunerSeekOn       tuner_elite.o
    0x08011938   0x0000005c   Code   RO         5130    i.TunerSetAFChangeFreq  tuner_elite.o
    0x08011994   0x0000005c   Code   RO         5131    i.TunerSetAFCheck   tuner_elite.o
    0x080119f0   0x00000068   Code   RO         5132    i.TunerSetAFEnd     tuner_elite.o
    0x08011a58   0x00000080   Code   RO         5134    i.TunerSetFreq      tuner_elite.o
    0x08011ad8   0x000001f4   Code   RO         5135    i.TunerStartupSeq   tuner_elite.o
    0x08011ccc   0x000000c4   Code   RO           23    i.USART1_IRQHandler  stm32f0xx_it.o
    0x08011d90   0x000000c0   Code   RO           24    i.USART2_IRQHandler  stm32f0xx_it.o
    0x08011e50   0x000000a0   Code   RO           25    i.USART3_4_IRQHandler  stm32f0xx_it.o
    0x08011ef0   0x00000004   Code   RO         3081    i.USART_ClearFlag   stm32f0xx_usart.o
    0x08011ef4   0x00000012   Code   RO         3082    i.USART_ClearITPendingBit  stm32f0xx_usart.o
    0x08011f06   0x00000018   Code   RO         3085    i.USART_Cmd         stm32f0xx_usart.o
    0x08011f1e   0x00000002   PAD
    0x08011f20   0x0000007c   Code   RO         3091    i.USART_DeInit      stm32f0xx_usart.o
    0x08011f9c   0x00000014   Code   RO         3093    i.USART_GetFlagStatus  stm32f0xx_usart.o
    0x08011fb0   0x00000042   Code   RO         3096    i.USART_ITConfig    stm32f0xx_usart.o
    0x08011ff2   0x00000002   PAD
    0x08011ff4   0x000000e8   Code   RO         3097    i.USART_Init        stm32f0xx_usart.o
    0x080120dc   0x0000000a   Code   RO         3109    i.USART_ReceiveData  stm32f0xx_usart.o
    0x080120e6   0x00000008   Code   RO         3114    i.USART_SendData    stm32f0xx_usart.o
    0x080120ee   0x00000002   PAD
    0x080120f0   0x00000094   Code   RO          348    i.Uart1Deinit       bsp.o
    0x08012184   0x00000050   Code   RO         1566    i.Uart1SendStr      usart1.o
    0x080121d4   0x00000070   Code   RO          350    i.Uart2Deinit       bsp.o
    0x08012244   0x000000e0   Code   RO          351    i.Uart2Init         bsp.o
    0x08012324   0x000000b8   Code   RO          970    i.Uart2SendStr      armuart.o
    0x080123dc   0x00000064   Code   RO          352    i.Uart4Deinit       bsp.o
    0x08012440   0x00000050   Code   RO         3727    i.Uart4SendStr      usart4.o
    0x08012490   0x00000028   Code   RO         4505    i.UartBufInit       mw_uart.o
    0x080124b8   0x00000018   Code   RO         4510    i.UartSendData8     mw_uart.o
    0x080124d0   0x00000038   Code   RO         4513    i.UartTxData_Direct  mw_uart.o
    0x08012508   0x0000002c   Code   RO         3728    i.VM4CanInit        usart4.o
    0x08012534   0x0000002c   Code   RO         1567    i.VMCanInit         usart1.o
    0x08012560   0x00000040   Code   RO          354    i.VectorRemap       bsp.o
    0x080125a0   0x00000158   Code   RO         3438    i.Wr7786CkStatProc  radio.o
    0x080126f8   0x000001ac   Code   RO         3439    i.Wr7786PllProc     radio.o
    0x080128a4   0x00000064   Code   RO         3440    i.WritePresetMem    radio.o
    0x08012908   0x0000001c   Code   RO          636    i.__ARM_common_switch8  core.o
    0x08012924   0x000000b8   Code   RO         4410    i.__Printf_Conversion  sch_printf.o
    0x080129dc   0x00000164   Code   RO          313    i.main              main.o
    0x08012b40   0x0000001c   Code   RO         4260    i.sch_memcpy        sch_common.o
    0x08012b5c   0x00000016   Code   RO         4261    i.sch_memset        sch_common.o
    0x08012b72   0x00000000   Code   RO         5536    x$fpl$usenofp       fz_ps.l(usenofp.o)
    0x08012b72   0x0000001a   Data   RO          749    .constdata          drive.o
    0x08012b8c   0x00000010   Data   RO         1681    .constdata          mw_can.o
    0x08012b9c   0x000009e4   Data   RO         3442    .constdata          radio.o
    0x08013580   0x00000030   Data   RO         4519    .constdata          mw_uart.o
    0x080135b0   0x0000264f   Data   RO         5138    .constdata          tuner_elite.o
    0x08015bff   0x00000080   Data   RO         5515    .constdata          fz_ps.l(ddiv.o)
    0x08015c7f   0x00000001   PAD
    0x08015c80   0x00000097   Data   RO         3443    .conststring        radio.o
    0x08015d17   0x00000001   PAD
    0x08015d18   0x00000020   Data   RO         5703    Region$$Table       anon$$obj.o


    Execution Region RW_IRAM1 (Base: 0x200000c0, Size: 0x00003160, Max: 0x00004000, ABSOLUTE, COMPRESSED[0x00000130])

    Base Addr    Size         Type   Attr      Idx    E Section Name        Object

    0x200000c0   0x00000002   Data   RW           26    .data               stm32f0xx_it.o
    0x200000c2   0x00000002   PAD
    0x200000c4   0x00000016   Data   RW          357    .data               bsp.o
    0x200000da   0x0000000d   Data   RW          569    .data               core.o
    0x200000e7   0x00000016   Data   RW          660    .data               detection.o
    0x200000fd   0x00000001   PAD
    0x200000fe   0x00000013   Data   RW          750    .data               drive.o
    0x20000111   0x0000001b   Data   RW          867    .data               key.o
    0x2000012c   0x00000011   Data   RW          972    .data               armuart.o
    0x2000013d   0x00000001   PAD
    0x2000013e   0x0000015d   Data   RW         1433    .data               swc.o
    0x2000029b   0x00000001   PAD
    0x2000029c   0x00000010   Data   RW         1569    .data               usart1.o
    0x200002ac   0x00000048   Data   RW         1682    .data               mw_can.o
    0x200002f4   0x00000010   Data   RW         1815    .data               stm32f0xx_rcc.o
    0x20000304   0x00000071   Data   RW         2923    .data               irda.o
    0x20000375   0x00000001   PAD
    0x20000376   0x0000005f   Data   RW         3444    .data               radio.o
    0x200003d5   0x00000001   PAD
    0x200003d6   0x0000000e   Data   RW         3730    .data               usart4.o
    0x200003e4   0x00000090   Data   RW         4366    .data               sch_message.o
    0x20000474   0x000000d4   Data   RW         4520    .data               mw_uart.o
    0x20000548   0x0000009a   Data   RW         4669    .data               rds.o
    0x200005e2   0x0000000b   Data   RW         5000    .data               rdseon.o
    0x200005ed   0x00000003   PAD
    0x200005f0   0x00000014   Data   RW         5139    .data               tuner_elite.o
    0x20000604   0x0000000c   Zero   RW          356    .bss                bsp.o
    0x20000610   0x00000025   Zero   RW          568    .bss                core.o
    0x20000635   0x00000001   PAD
    0x20000636   0x0000000a   Zero   RW          748    .bss                drive.o
    0x20000640   0x00000018   Zero   RW          866    .bss                key.o
    0x20000658   0x000006ff   Zero   RW          971    .bss                armuart.o
    0x20000d57   0x00000001   PAD
    0x20000d58   0x0000003c   Zero   RW         1432    .bss                swc.o
    0x20000d94   0x000002c8   Zero   RW         1568    .bss                usart1.o
    0x2000105c   0x0000001a   Zero   RW         1619    .bss                app_can.o
    0x20001076   0x00000002   PAD
    0x20001078   0x00000320   Zero   RW         1680    .bss                mw_can.o
    0x20001398   0x000000d6   Zero   RW         3441    .bss                radio.o
    0x2000146e   0x00000363   Zero   RW         3729    .bss                usart4.o
    0x200017d1   0x00000001   PAD
    0x200017d2   0x00000168   Zero   RW         4365    .bss                sch_message.o
    0x2000193a   0x00000600   Zero   RW         4518    .bss                mw_uart.o
    0x20001f3a   0x000008f2   Zero   RW         4667    .bss                rds.o
    0x2000282c   0x000000e0   Zero   RW         4999    .bss                rdseon.o
    0x2000290c   0x000002b4   Zero   RW         5137    .bss                tuner_elite.o
    0x20002bc0   0x00000060   Zero   RW         5576    .bss                c_p.l(libspace.o)
    0x20002c20   0x00000200   Zero   RW            2    HEAP                startup_stm32f072xb.o
    0x20002e20   0x00000400   Zero   RW            1    STACK               startup_stm32f072xb.o


==============================================================================

Image component sizes


      Code (inc. data)   RO Data    RW Data    ZI Data      Debug   Object Name

       348         22          0          0         26       1503   app_can.o
      7100        544          0         17       1791      18786   armuart.o
      1840        222          0         22         12      10456   bsp.o
      3394        534          0         13         37      10200   core.o
      1336        288          0         22          0       5667   detection.o
      2640        546         26         19         10       8804   drive.o
       286         40          0          0          0       3701   flash_if.o
      1706        126          0        113          0       8066   irda.o
      1652        166          0         27         24       9657   key.o
       356        154          0          0          0        503   main.o
        68          6         16         72        800       2217   mw_can.o
       524         42         48        212       1536       4440   mw_uart.o
     14052       2270       2683         95        214      37545   radio.o
      9480       1530          0        154       2290      28416   rds.o
      2360        482          0          0          0       3513   rdsapp.o
      1776        530          0         11        224       6483   rdseon.o
        80         54          0          0          0        423   rtc_time.o
       198          0          0          0          0       5006   sch_common.o
        64         12          0        144        360       1589   sch_message.o
       436         20          0          0          0       2753   sch_printf.o
       214          0          0          0          0       2004   sch_queue.o
        56         26        192          0       1536        608   startup_stm32f072xb.o
       758          4          0          0          0     168101   stm32f0xx_can.o
       192         16          0          0          0       2174   stm32f0xx_exti.o
       212          0          0          0          0       5815   stm32f0xx_gpio.o
      1162        180          0          2          0     230491   stm32f0xx_it.o
       112          6          0          0          0        756   stm32f0xx_misc.o
       708         52          0         16          0     161237   stm32f0xx_rcc.o
       230         18          0          0          0      15740   stm32f0xx_rtc.o
        64          4          0          0          0        548   stm32f0xx_syscfg.o
       186         38          0          0          0      23186   stm32f0xx_tim.o
       506         34          0          0          0      14896   stm32f0xx_usart.o
      1602        112          0        349         60      11500   swc.o
       228         12          0          0          0     144941   system_stm32f0xx.o
      9794        712       9807         20        692      39246   tuner_elite.o
       512         86          0         16        712       3675   usart1.o
       556        104          0         14        867       3687   usart4.o

    ----------------------------------------------------------------------
     66830       8992      12805       1348      11196     998333   Object Totals
         0          0         32          0          0          0   (incl. Generated)
        42          0          1         10          5          0   (incl. Padding)

    ----------------------------------------------------------------------

      Code (inc. data)   RO Data    RW Data    ZI Data      Debug   Library Member Name

        86          0          0          0          0          0   __dczerorl2.o
         8          0          0          0          0         68   __main.o
         0          0          0          0          0          0   __rtentry.o
        12          0          0          0          0          0   __rtentry2.o
         6          0          0          0          0          0   __rtentry4.o
        60          8          0          0          0          0   __scatter.o
        28          0          0          0          0          0   __scatter_zi.o
       346          0          0          0          0         92   aeabi_sdiv.o
        16          0          0          0          0         68   exit.o
         6          0          0          0          0        136   heapauxi.o
         0          0          0          0          0          0   indicate_semi.o
         2          0          0          0          0          0   libinit.o
         2          0          0          0          0          0   libinit2.o
         2          0          0          0          0          0   libshutdown.o
         2          0          0          0          0          0   libshutdown2.o
         8          4          0          0         96         68   libspace.o
        64          0          0          0          0        108   rt_memclr.o
        56          0          0          0          0         68   rt_memcpy.o
         2          0          0          0          0          0   rtexit.o
        10          0          0          0          0          0   rtexit2.o
        12          4          0          0          0         60   sys_exit.o
        62          0          0          0          0         80   sys_stackheap_outer.o
         2          0          0          0          0         68   use_no_semi.o
       856         20          0          0          0        208   daddsub.o
      1096         26        128          0          0        112   ddiv.o
        72          4          0          0          0         68   dfixui.o
        88          0          0          0          0         92   dflti.o
       584         26          0          0          0         84   dmul.o
         0          0          0          0          0          0   usenofp.o

    ----------------------------------------------------------------------
      3492         92        129          0         96       1380   Library Totals
         4          0          1          0          0          0   (incl. Padding)

    ----------------------------------------------------------------------

      Code (inc. data)   RO Data    RW Data    ZI Data      Debug   Library Name

       792         16          0          0         96        816   c_p.l
      2696         76        128          0          0        564   fz_ps.l

    ----------------------------------------------------------------------
      3492         92        129          0         96       1380   Library Totals

    ----------------------------------------------------------------------

==============================================================================


      Code (inc. data)   RO Data    RW Data    ZI Data      Debug   

     70322       9084      12934       1348      11292     983637   Grand Totals
     70322       9084      12934        304      11292     983637   ELF Image Totals (compressed)
     70322       9084      12934        304          0          0   ROM Totals

==============================================================================

    Total RO  Size (Code + RO Data)                83256 (  81.30kB)
    Total RW  Size (RW Data + ZI Data)             12640 (  12.34kB)
    Total ROM Size (Code + RO Data + RW Data)      83560 (  81.60kB)

==============================================================================

